# SymbolsHelper-Confirmed: 1.1.0 amd64 i386 riscv64
libfm-qt.so.12 libfm-qt12 #MINVER#
* Build-Depends-Package: libfm-qt-dev
 _ZN2Fm10DirListJob10filesFoundERNS_12FileInfoListE@Base 0.16.0
 _ZN2Fm10DirListJob11qt_metacallEN11QMetaObject4CallEiPPv@Base 0.16.0
 _ZN2Fm10DirListJob11qt_metacastEPKc@Base 0.16.0
 _ZN2Fm10DirListJob16staticMetaObjectE@Base 0.16.0
 _ZN2Fm10DirListJob4execEv@Base 0.16.0
 _ZN2Fm10DirListJobC1ERKNS_8FilePathENS0_5FlagsE@Base 0.16.0
 _ZN2Fm10DirListJobC2ERKNS_8FilePathENS0_5FlagsE@Base 0.16.0
 _ZN2Fm10FileDialog10freeFolderEv@Base 0.16.0
 _ZN2Fm10FileDialog10selectFileERK4QUrl@Base 0.16.0
 _ZN2Fm10FileDialog11eventFilterEP7QObjectP6QEvent@Base 0.16.0
 _ZN2Fm10FileDialog11onNewFolderEv@Base 0.16.0
 _ZN2Fm10FileDialog11qt_metacallEN11QMetaObject4CallEiPPv@Base 0.16.0
 _ZN2Fm10FileDialog11qt_metacastEPKc@Base 0.16.0
 _ZN2Fm10FileDialog11setFileModeEN11QFileDialog8FileModeE@Base 0.16.0
 _ZN2Fm10FileDialog11setViewModeENS_10FolderView8ViewModeE@Base 0.16.0
 _ZN2Fm10FileDialog12fileSelectedERK4QUrl@Base 0.16.0
 _ZN2Fm10FileDialog12setDirectoryERK4QUrl@Base 0.16.0
 _ZN2Fm10FileDialog12setLabelTextEN11QFileDialog11DialogLabelERK7QString@Base 0.16.0
 _ZN2Fm10FileDialog13filesSelectedERK5QListI4QUrlE@Base 0.16.0
 _ZN2Fm10FileDialog13onFileClickedEiRKSt10shared_ptrIKNS_8FileInfoEE@Base 0.16.0
 _ZN2Fm10FileDialog13selectedFilesEv@Base 0.16.0
 _ZN2Fm10FileDialog13setAcceptModeEN11QFileDialog10AcceptModeE@Base 0.16.0
 _ZN2Fm10FileDialog13setShowHiddenEb@Base 0.16.0
 _ZN2Fm10FileDialog14currentChangedERK4QUrl@Base 0.16.0
 _ZN2Fm10FileDialog14filterSelectedERK7QString@Base 0.16.0
 _ZN2Fm10FileDialog14isSupportedUrlERK4QUrl@Base 0.16.0
 _ZN2Fm10FileDialog14selectFilePathERKNS_8FilePathE@Base 0.16.0
 _ZN2Fm10FileDialog14setBigIconSizeEi@Base 0.16.0
 _ZN2Fm10FileDialog14setNameFiltersERK11QStringList@Base 0.16.0
 _ZN2Fm10FileDialog14setSplitterPosEi@Base 0.16.0
 _ZN2Fm10FileDialog15setHiddenPlacesERK4QSetI7QStringE@Base 0.16.0
 _ZN2Fm10FileDialog16FileDialogFilter6updateEv@Base 0.16.0
 _ZN2Fm10FileDialog16directoryEnteredERK4QUrl@Base 0.16.0
 _ZN2Fm10FileDialog16selectNameFilterERK7QString@Base 0.16.0
 _ZN2Fm10FileDialog16setDirectoryPathENS_8FilePathES1_b@Base 0.16.0
 _ZN2Fm10FileDialog16setHiddenColumnsERK5QListIiE@Base 1.1.0
 _ZN2Fm10FileDialog16setNoItemTooltipEb@Base 0.16.0
 _ZN2Fm10FileDialog16setSmallIconSizeEi@Base 0.16.0
 _ZN2Fm10FileDialog16staticMetaObjectE@Base 0.16.0
 _ZN2Fm10FileDialog17onViewModeToggledEb@Base 0.16.0
 _ZN2Fm10FileDialog17setScrollPerPixelEb@Base 1.1.0
 _ZN2Fm10FileDialog17setShowThumbnailsEb@Base 0.16.0
 _ZN2Fm10FileDialog17setSortHiddenLastEb@Base 0.16.0
 _ZN2Fm10FileDialog18onSelectionChangedERK14QItemSelectionS3_@Base 0.16.0
 _ZN2Fm10FileDialog18setMimeTypeFiltersERK11QStringList@Base 0.16.0
 _ZN2Fm10FileDialog18setSortFolderFirstEb@Base 0.16.0
 _ZN2Fm10FileDialog19onCurrentRowChangedERK11QModelIndexS3_@Base 0.16.0
 _ZN2Fm10FileDialog19selectFilesOnReloadERKNS_12FileInfoListE@Base 0.16.0
 _ZN2Fm10FileDialog19setLabelTextControlEN11QFileDialog11DialogLabelERK7QString@Base 0.16.0
 _ZN2Fm10FileDialog19updateSelectionModeEv@Base 0.16.0
 _ZN2Fm10FileDialog20onSettingHiddenPlaceERK7QStringb@Base 0.16.0
 _ZN2Fm10FileDialog20selectMimeTypeFilterERK7QString@Base 0.16.0
 _ZN2Fm10FileDialog20setSortCaseSensitiveEb@Base 0.16.0
 _ZN2Fm10FileDialog20setThumbnailIconSizeEi@Base 0.16.0
 _ZN2Fm10FileDialog20updateSaveButtonTextEb@Base 0.16.0
 _ZN2Fm10FileDialog21onFileInfoJobFinishedEv@Base 0.16.0
 _ZN2Fm10FileDialog23selectFilePathWithDelayERKNS_8FilePathE@Base 0.16.0
 _ZN2Fm10FileDialog23updateAcceptButtonStateEv@Base 0.16.0
 _ZN2Fm10FileDialog4sortEiN2Qt9SortOrderE@Base 0.16.0
 _ZN2Fm10FileDialog6acceptEv@Base 0.16.0
 _ZN2Fm10FileDialog6goHomeEv@Base 0.16.0
 _ZN2Fm10FileDialog6rejectEv@Base 0.16.0
 _ZN2Fm10FileDialog8doAcceptEv@Base 0.16.0
 _ZN2Fm10FileDialog9setFilterE6QFlagsIN4QDir6FilterEE@Base 0.16.0
 _ZN2Fm10FileDialogC1EP7QWidgetNS_8FilePathE@Base 0.16.0
 _ZN2Fm10FileDialogC2EP7QWidgetNS_8FilePathE@Base 0.16.0
 _ZN2Fm10FileDialogD0Ev@Base 0.16.0
 _ZN2Fm10FileDialogD1Ev@Base 0.16.0
 _ZN2Fm10FileDialogD2Ev@Base 0.16.0
 _ZN2Fm10FolderMenu11qt_metacallEN11QMetaObject4CallEiPPv@Base 0.16.0
 _ZN2Fm10FolderMenu11qt_metacastEPKc@Base 0.16.0
 _ZN2Fm10FolderMenu14createSortMenuEv@Base 0.16.0
 _ZN2Fm10FolderMenu15addSortMenuItemERK7QStringi@Base 0.16.0
 _ZN2Fm10FolderMenu16staticMetaObjectE@Base 0.16.0
 _ZN2Fm10FolderMenu19addCustomActionItemEP5QMenuSt10shared_ptrIKNS_14FileActionItemEE@Base 0.16.0
 _ZN2Fm10FolderMenu21onSortActionTriggeredEb@Base 0.16.0
 _ZN2Fm10FolderMenu22onPasteActionTriggeredEv@Base 0.16.0
 _ZN2Fm10FolderMenu23onCustomActionTrigerredEv@Base 0.16.0
 _ZN2Fm10FolderMenu26onSelectAllActionTriggeredEv@Base 0.16.0
 _ZN2Fm10FolderMenu26onSortOrderActionTriggeredEb@Base 0.16.0
 _ZN2Fm10FolderMenu27onHiddenLastActionTriggeredEb@Base 0.16.0
 _ZN2Fm10FolderMenu27onPropertiesActionTriggeredEv@Base 0.16.0
 _ZN2Fm10FolderMenu27onShowHiddenActionTriggeredEb@Base 0.16.0
 _ZN2Fm10FolderMenu28onFolderFirstActionTriggeredEb@Base 0.16.0
 _ZN2Fm10FolderMenu30onCaseSensitiveActionTriggeredEb@Base 0.16.0
 _ZN2Fm10FolderMenu32onInvertSelectionActionTriggeredEv@Base 0.16.0
 _ZN2Fm10FolderMenuC1EPNS_10FolderViewEP7QWidget@Base 0.16.0
 _ZN2Fm10FolderMenuC2EPNS_10FolderViewEP7QWidget@Base 0.16.0
 _ZN2Fm10FolderMenuD0Ev@Base 0.16.0
 _ZN2Fm10FolderMenuD1Ev@Base 0.16.0
 _ZN2Fm10FolderMenuD2Ev@Base 0.16.0
 _ZN2Fm10FolderView10selChangedEv@Base 0.16.0
 _ZN2Fm10FolderView10setMarginsE5QSize@Base 0.16.0
 _ZN2Fm10FolderView11clickedBackEv@Base 0.16.0
 _ZN2Fm10FolderView11eventFilterEP7QObjectP6QEvent@Base 0.16.0
 _ZN2Fm10FolderView11qt_metacallEN11QMetaObject4CallEiPPv@Base 0.16.0
 _ZN2Fm10FolderView11qt_metacastEPKc@Base 0.16.0
 _ZN2Fm10FolderView11selectFilesERKNS_12FileInfoListEb@Base 0.16.0
 _ZN2Fm10FolderView11setIconSizeENS0_8ViewModeE5QSize@Base 0.16.0
 _ZN2Fm10FolderView11setViewModeENS0_8ViewModeE@Base 0.16.0
 _ZN2Fm10FolderView11sortChangedEv@Base 0.16.0
 _ZN2Fm10FolderView13emitClickedAtENS0_9ClickTypeERK6QPoint@Base 0.16.0
 _ZN2Fm10FolderView13inlineRenamedERK7QStringS3_@Base 1.1.0
 _ZN2Fm10FolderView13onFileClickedEiRKSt10shared_ptrIKNS_8FileInfoEE@Base 0.16.0
 _ZN2Fm10FolderView14childDropEventEP10QDropEvent@Base 0.16.0
 _ZN2Fm10FolderView14clickedForwardEv@Base 0.16.0
 _ZN2Fm10FolderView14scrollSmoothlyEv@Base 0.16.0
 _ZN2Fm10FolderView14updateGridSizeEv@Base 0.16.0
 _ZN2Fm10FolderView15invertSelectionEv@Base 0.16.0
 _ZN2Fm10FolderView15onClosingEditorEP7QWidgetN21QAbstractItemDelegate11EndEditHintE@Base 0.16.0
 _ZN2Fm10FolderView15onItemActivatedE11QModelIndex@Base 0.16.0
 _ZN2Fm10FolderView15prepareFileMenuEPNS_8FileMenuE@Base 0.16.0
 _ZN2Fm10FolderView15setShadowHiddenEb@Base 0.16.0
 _ZN2Fm10FolderView16contextMenuEventEP17QContextMenuEvent@Base 0.16.0
 _ZN2Fm10FolderView16setHiddenColumnsERK5QListIiE@Base 0.16.0
 _ZN2Fm10FolderView16staticMetaObjectE@Base 0.16.0
 _ZN2Fm10FolderView17prepareFolderMenuEPNS_10FolderMenuE@Base 0.16.0
 _ZN2Fm10FolderView17setCtrlRightClickEb@Base 0.16.0
 _ZN2Fm10FolderView17setScrollPerPixelEb@Base 1.1.0
 _ZN2Fm10FolderView18childDragMoveEventEP14QDragMoveEvent@Base 0.16.0
 _ZN2Fm10FolderView18columnHiddenByUserEv@Base 0.16.0
 _ZN2Fm10FolderView18onSelectionChangedERK14QItemSelectionS3_@Base 0.16.0
 _ZN2Fm10FolderView19childDragEnterEventEP15QDragEnterEvent@Base 0.16.0
 _ZN2Fm10FolderView19childDragLeaveEventEP15QDragLeaveEvent@Base 0.16.0
 _ZN2Fm10FolderView19columnResizedByUserEv@Base 0.16.0
 _ZN2Fm10FolderView19onSelChangedTimeoutEv@Base 0.16.0
 _ZN2Fm10FolderView20childMousePressEventEP11QMouseEvent@Base 0.16.0
 _ZN2Fm10FolderView21setAutoSelectionDelayEi@Base 0.16.0
 _ZN2Fm10FolderView21setCustomColumnWidthsERK5QListIiE@Base 0.16.0
 _ZN2Fm10FolderView22onAutoSelectionTimeoutEv@Base 0.16.0
 _ZN2Fm10FolderView5eventEP6QEvent@Base 0.16.0
 _ZN2Fm10FolderView7clickedEiRKSt10shared_ptrIKNS_8FileInfoEE@Base 0.16.0
 _ZN2Fm10FolderView8setModelEPNS_16ProxyFolderModelE@Base 0.16.0
 _ZN2Fm10FolderView9selectAllEv@Base 0.16.0
 _ZN2Fm10FolderViewC1ENS0_8ViewModeEP7QWidget@Base 0.16.0
 _ZN2Fm10FolderViewC2ENS0_8ViewModeEP7QWidget@Base 0.16.0
 _ZN2Fm10FolderViewD0Ev@Base 0.16.0
 _ZN2Fm10FolderViewD1Ev@Base 0.16.0
 _ZN2Fm10FolderViewD2Ev@Base 0.16.0
 _ZN2Fm10FontButton11qt_metacallEN11QMetaObject4CallEiPPv@Base 0.16.0
 _ZN2Fm10FontButton11qt_metacastEPKc@Base 0.16.0
 _ZN2Fm10FontButton16staticMetaObjectE@Base 0.16.0
 _ZN2Fm10FontButton7changedEv@Base 0.16.0
 _ZN2Fm10FontButton7setFontE5QFont@Base 0.16.0
 _ZN2Fm10FontButton9onClickedEv@Base 0.16.0
 _ZN2Fm10FontButtonC1EP7QWidget@Base 0.16.0
 _ZN2Fm10FontButtonC2EP7QWidget@Base 0.16.0
 _ZN2Fm10FontButtonD0Ev@Base 0.16.0
 _ZN2Fm10FontButtonD1Ev@Base 0.16.0
 _ZN2Fm10FontButtonD2Ev@Base 0.16.0
 _ZN2Fm10PlacesView10commitDataEP7QWidget@Base 0.16.0
 _ZN2Fm10PlacesView11activateRowEiRK11QModelIndex@Base 0.16.0
 _ZN2Fm10PlacesView11proxyModel_E@Base 0.16.0
 _ZN2Fm10PlacesView11qt_metacallEN11QMetaObject4CallEiPPv@Base 0.16.0
 _ZN2Fm10PlacesView11qt_metacastEPKc@Base 0.16.0
 _ZN2Fm10PlacesView12onEmptyTrashEv@Base 0.16.0
 _ZN2Fm10PlacesView12onOpenNewTabEv@Base 0.16.0
 _ZN2Fm10PlacesView13dragMoveEventEP14QDragMoveEvent@Base 0.16.0
 _ZN2Fm10PlacesView13hiddenItemSetERK7QStringb@Base 0.16.0
 _ZN2Fm10PlacesView13keyPressEventEP9QKeyEvent@Base 0.16.0
 _ZN2Fm10PlacesView13onEjectVolumeEv@Base 0.16.0
 _ZN2Fm10PlacesView13onMountVolumeEv@Base 0.16.0
 _ZN2Fm10PlacesView14chdirRequestedEiRKNS_8FilePathE@Base 0.16.0
 _ZN2Fm10PlacesView14onUnmountMountEv@Base 0.16.0
 _ZN2Fm10PlacesView14setCurrentPathENS_8FilePathE@Base 0.16.0
 _ZN2Fm10PlacesView15onOpenNewWindowEv@Base 0.16.0
 _ZN2Fm10PlacesView15onUnmountVolumeEv@Base 0.16.0
 _ZN2Fm10PlacesView15spanFirstColumnEv@Base 0.16.0
 _ZN2Fm10PlacesView16contextMenuEventEP17QContextMenuEvent@Base 0.16.0
 _ZN2Fm10PlacesView16onDeleteBookmarkEv@Base 0.16.0
 _ZN2Fm10PlacesView16onMoveBookmarkUpEv@Base 0.16.0
 _ZN2Fm10PlacesView16onRenameBookmarkEv@Base 0.16.0
 _ZN2Fm10PlacesView16staticMetaObjectE@Base 0.16.0
 _ZN2Fm10PlacesView17onIconSizeChangedERK5QSize@Base 0.16.0
 _ZN2Fm10PlacesView18onMoveBookmarkDownEv@Base 0.16.0
 _ZN2Fm10PlacesView18restoreHiddenItemsERK4QSetI7QStringE@Base 0.16.0
 _ZN2Fm10PlacesView20onEjectButtonClickedEPNS_15PlacesModelItemE@Base 0.16.0
 _ZN2Fm10PlacesView7showAllEb@Base 0.16.0
 _ZN2Fm10PlacesView9dropEventEP10QDropEvent@Base 0.16.0
 _ZN2Fm10PlacesView9onClickedERK11QModelIndex@Base 0.16.0
 _ZN2Fm10PlacesView9onPressedERK11QModelIndex@Base 0.16.0
 _ZN2Fm10PlacesViewC1EP7QWidget@Base 0.16.0
 _ZN2Fm10PlacesViewC2EP7QWidget@Base 0.16.0
 _ZN2Fm10PlacesViewD0Ev@Base 0.16.0
 _ZN2Fm10PlacesViewD1Ev@Base 0.16.0
 _ZN2Fm10PlacesViewD2Ev@Base 0.16.0
 _ZN2Fm10UntrashJob4execEv@Base 0.16.0
 _ZN2Fm10UntrashJobC1ESt6vectorINS_8FilePathESaIS2_EE@Base 0.16.0
 _ZN2Fm10UntrashJobC2ESt6vectorINS_8FilePathESaIS2_EE@Base 0.16.0
 _ZN2Fm10renameFileESt10shared_ptrIKNS_8FileInfoEEP7QWidget@Base 0.16.0
 _ZN2Fm11AppMenuView11qt_metacallEN11QMetaObject4CallEiPPv@Base 0.16.0
 _ZN2Fm11AppMenuView11qt_metacastEPKc@Base 0.16.0
 _ZN2Fm11AppMenuView12addMenuItemsEP13QStandardItemP13_MenuCacheDir@Base 0.16.0
 _ZN2Fm11AppMenuView16selectionChangedERK14QItemSelectionS3_@Base 0.16.0
 _ZN2Fm11AppMenuView16staticMetaObjectE@Base 0.16.0
 _ZN2Fm11AppMenuView17onMenuCacheReloadEP10_MenuCache@Base 0.16.0
 _ZN2Fm11AppMenuViewC1EP7QWidget@Base 0.16.0
 _ZN2Fm11AppMenuViewC2EP7QWidget@Base 0.16.0
 _ZN2Fm11AppMenuViewD0Ev@Base 0.16.0
 _ZN2Fm11AppMenuViewD1Ev@Base 0.16.0
 _ZN2Fm11AppMenuViewD2Ev@Base 0.16.0
 _ZN2Fm11ColorButton11qt_metacallEN11QMetaObject4CallEiPPv@Base 0.16.0
 _ZN2Fm11ColorButton11qt_metacastEPKc@Base 0.16.0
 _ZN2Fm11ColorButton16staticMetaObjectE@Base 0.16.0
 _ZN2Fm11ColorButton7changedEv@Base 0.16.0
 _ZN2Fm11ColorButton8setColorERK6QColor@Base 0.16.0
 _ZN2Fm11ColorButton9onClickedEv@Base 0.16.0
 _ZN2Fm11ColorButtonC1EP7QWidget@Base 0.16.0
 _ZN2Fm11ColorButtonC2EP7QWidget@Base 0.16.0
 _ZN2Fm11ColorButtonD0Ev@Base 0.16.0
 _ZN2Fm11ColorButtonD1Ev@Base 0.16.0
 _ZN2Fm11ColorButtonD2Ev@Base 0.16.0
 _ZN2Fm11DirTreeView10onExpandedERK11QModelIndex@Base 0.16.0
 _ZN2Fm11DirTreeView11onCollapsedERK11QModelIndex@Base 0.16.0
 _ZN2Fm11DirTreeView11onNewFolderEv@Base 0.16.0
 _ZN2Fm11DirTreeView11onNewWindowEv@Base 0.16.0
 _ZN2Fm11DirTreeView11onRowLoadedERK11QModelIndex@Base 0.16.0
 _ZN2Fm11DirTreeView11qt_metacallEN11QMetaObject4CallEiPPv@Base 0.16.0
 _ZN2Fm11DirTreeView11qt_metacastEPKc@Base 0.16.0
 _ZN2Fm11DirTreeView11rowsRemovedERK11QModelIndexii@Base 0.16.0
 _ZN2Fm11DirTreeView14chdirRequestedEiRKNS_8FilePathE@Base 0.16.0
 _ZN2Fm11DirTreeView14setCurrentPathENS_8FilePathE@Base 0.16.0
 _ZN2Fm11DirTreeView15mousePressEventEP11QMouseEvent@Base 0.16.0
 _ZN2Fm11DirTreeView15prepareFileMenuEPNS_8FileMenuE@Base 0.16.0
 _ZN2Fm11DirTreeView16onOpenInTerminalEv@Base 0.16.0
 _ZN2Fm11DirTreeView16staticMetaObjectE@Base 0.16.0
 _ZN2Fm11DirTreeView17doQueuedDeletionsEv@Base 0.16.0
 _ZN2Fm11DirTreeView17expandPendingPathEv@Base 0.16.0
 _ZN2Fm11DirTreeView18cancelPendingChdirEv@Base 0.16.0
 _ZN2Fm11DirTreeView18onSelectionChangedERK14QItemSelectionS3_@Base 0.16.0
 _ZN2Fm11DirTreeView20rowsAboutToBeRemovedERK11QModelIndexii@Base 0.16.0
 _ZN2Fm11DirTreeView24createNewFolderRequestedERKNS_8FilePathE@Base 0.16.0
 _ZN2Fm11DirTreeView27openFolderInNewTabRequestedERKNS_8FilePathE@Base 0.16.0
 _ZN2Fm11DirTreeView28onCustomContextMenuRequestedERK6QPoint@Base 0.16.0
 _ZN2Fm11DirTreeView29openFolderInTerminalRequestedERKNS_8FilePathE@Base 0.16.0
 _ZN2Fm11DirTreeView30openFolderInNewWindowRequestedERKNS_8FilePathE@Base 0.16.0
 _ZN2Fm11DirTreeView6onOpenEv@Base 0.16.0
 _ZN2Fm11DirTreeView8onNewTabEv@Base 0.16.0
 _ZN2Fm11DirTreeView8setModelEP18QAbstractItemModel@Base 0.16.0
 _ZN2Fm11DirTreeViewC1EP7QWidget@Base 0.16.0
 _ZN2Fm11DirTreeViewC2EP7QWidget@Base 0.16.0
 _ZN2Fm11DirTreeViewD0Ev@Base 0.16.0
 _ZN2Fm11DirTreeViewD1Ev@Base 0.16.0
 _ZN2Fm11DirTreeViewD2Ev@Base 0.16.0
 _ZN2Fm11FileInfoJob11qt_metacallEN11QMetaObject4CallEiPPv@Base 0.16.0
 _ZN2Fm11FileInfoJob11qt_metacastEPKc@Base 0.16.0
 _ZN2Fm11FileInfoJob16staticMetaObjectE@Base 0.16.0
 _ZN2Fm11FileInfoJob4execEv@Base 0.16.0
 _ZN2Fm11FileInfoJob7gotInfoERKNS_8FilePathERSt10shared_ptrIKNS_8FileInfoEE@Base 0.16.0
 _ZN2Fm11FileInfoJobC1ESt6vectorINS_8FilePathESaIS2_EE@Base 0.16.0
 _ZN2Fm11FileInfoJobC2ESt6vectorINS_8FilePathESaIS2_EE@Base 0.16.0
 _ZN2Fm11FileLinkJobC1Ev@Base 0.16.0
 _ZN2Fm11FileLinkJobC2Ev@Base 0.16.0
 _ZN2Fm11FileMonitor11qt_metacallEN11QMetaObject4CallEiPPv@Base 0.16.0
 _ZN2Fm11FileMonitor11qt_metacastEPKc@Base 0.16.0
 _ZN2Fm11FileMonitor16staticMetaObjectE@Base 0.16.0
 _ZN2Fm11FileMonitorC1Ev@Base 0.16.0
 _ZN2Fm11FileMonitorC2Ev@Base 0.16.0
 _ZN2Fm11FolderModel10filesAddedENS_12FileInfoListE@Base 0.16.0
 _ZN2Fm11FolderModel11insertFilesEiRKNS_12FileInfoListE@Base 0.16.0
 _ZN2Fm11FolderModel11qt_metacallEN11QMetaObject4CallEiPPv@Base 0.16.0
 _ZN2Fm11FolderModel11qt_metacastEPKc@Base 0.16.0
 _ZN2Fm11FolderModel12dropMimeDataEPK9QMimeDataN2Qt10DropActionEiiRK11QModelIndex@Base 0.16.0
 _ZN2Fm11FolderModel12onFilesAddedERKNS_12FileInfoListE@Base 0.16.0
 _ZN2Fm11FolderModel14findItemByNameEPKcPi@Base 0.16.0
 _ZN2Fm11FolderModel14onFilesChangedERSt6vectorISt4pairISt10shared_ptrIKNS_8FileInfoEES6_ESaIS7_EE@Base 0.16.0
 _ZN2Fm11FolderModel14onFilesRemovedERKNS_12FileInfoListE@Base 0.16.0
 _ZN2Fm11FolderModel14onStartLoadingEv@Base 0.16.0
 _ZN2Fm11FolderModel15cacheThumbnailsEi@Base 0.16.0
 _ZN2Fm11FolderModel15fileSizeChangedERK11QModelIndex@Base 0.16.0
 _ZN2Fm11FolderModel15onFinishLoadingEv@Base 0.16.0
 _ZN2Fm11FolderModel15thumbnailLoadedERK11QModelIndexi@Base 0.16.0
 _ZN2Fm11FolderModel16staticMetaObjectE@Base 0.16.0
 _ZN2Fm11FolderModel17onThumbnailLoadedERKSt10shared_ptrIKNS_8FileInfoEEiRK6QImage@Base 0.16.0
 _ZN2Fm11FolderModel17releaseThumbnailsEi@Base 0.16.0
 _ZN2Fm11FolderModel17updateCutFilesSetEv@Base 0.16.0
 _ZN2Fm11FolderModel18findItemByFileInfoEPKNS_8FileInfoEPi@Base 0.16.0
 _ZN2Fm11FolderModel18queueLoadThumbnailERKSt10shared_ptrIKNS_8FileInfoEEi@Base 0.16.0
 _ZN2Fm11FolderModel18thumbnailFromIndexERK11QModelIndexi@Base 0.16.0
 _ZN2Fm11FolderModel21loadPendingThumbnailsEv@Base 0.16.0
 _ZN2Fm11FolderModel21onClipboardDataChangeEv@Base 0.16.0
 _ZN2Fm11FolderModel22onThumbnailJobFinishedEv@Base 0.16.0
 _ZN2Fm11FolderModel9removeAllEv@Base 0.16.0
 _ZN2Fm11FolderModel9setFolderERKSt10shared_ptrINS_6FolderEE@Base 0.16.0
 _ZN2Fm11FolderModelC1Ev@Base 0.16.0
 _ZN2Fm11FolderModelC2Ev@Base 0.16.0
 _ZN2Fm11FolderModelD0Ev@Base 0.16.0
 _ZN2Fm11FolderModelD1Ev@Base 0.16.0
 _ZN2Fm11FolderModelD2Ev@Base 0.16.0
 _ZN2Fm11PlacesModel11qt_metacallEN11QMetaObject4CallEiPPv@Base 0.16.0
 _ZN2Fm11PlacesModel11qt_metacastEPKc@Base 0.16.0
 _ZN2Fm11PlacesModel11updateTrashEv@Base 0.16.0
 _ZN2Fm11PlacesModel12dropMimeDataEPK9QMimeDataN2Qt10DropActionEiiRK11QModelIndex@Base 0.16.0
 _ZN2Fm11PlacesModel12itemFromPathEP13QStandardItemRKNS_8FilePathE@Base 0.16.0
 _ZN2Fm11PlacesModel12itemFromPathERKNS_8FilePathE@Base 0.16.0
 _ZN2Fm11PlacesModel12onMountAddedEP15_GVolumeMonitorP7_GMountPS0_@Base 0.16.0
 _ZN2Fm11PlacesModel12setShowTrashEb@Base 0.16.0
 _ZN2Fm11PlacesModel13itemFromMountEP7_GMount@Base 0.16.0
 _ZN2Fm11PlacesModel13loadBookmarksEv@Base 0.16.0
 _ZN2Fm11PlacesModel13onVolumeAddedEP15_GVolumeMonitorP8_GVolumePS0_@Base 0.16.0
 _ZN2Fm11PlacesModel14globalInstanceEv@Base 0.16.0
 _ZN2Fm11PlacesModel14itemFromVolumeEP8_GVolume@Base 0.16.0
 _ZN2Fm11PlacesModel14onMountChangedEP15_GVolumeMonitorP7_GMountPS0_@Base 0.16.0
 _ZN2Fm11PlacesModel14onMountRemovedEP15_GVolumeMonitorP7_GMountPS0_@Base 0.16.0
 _ZN2Fm11PlacesModel14onTrashChangedEP13_GFileMonitorP6_GFileS4_17GFileMonitorEventPS0_@Base 0.16.0
 _ZN2Fm11PlacesModel14setShowDesktopEb@Base 0.16.0
 _ZN2Fm11PlacesModel15createTrashItemEv@Base 0.16.0
 _ZN2Fm11PlacesModel15globalInstance_E@Base 0.16.0
 _ZN2Fm11PlacesModel15onVolumeChangedEP15_GVolumeMonitorP8_GVolumePS0_@Base 0.16.0
 _ZN2Fm11PlacesModel15onVolumeRemovedEP15_GVolumeMonitorP8_GVolumePS0_@Base 0.16.0
 _ZN2Fm11PlacesModel16itemFromBookmarkESt10shared_ptrIKNS_12BookmarkItemEE@Base 0.16.0
 _ZN2Fm11PlacesModel16staticMetaObjectE@Base 0.16.0
 _ZN2Fm11PlacesModel18onBookmarksChangedEv@Base 0.16.0
 _ZN2Fm11PlacesModel19setShowApplicationsEb@Base 0.16.0
 _ZN2Fm11PlacesModelC1EP7QObject@Base 0.16.0
 _ZN2Fm11PlacesModelC2EP7QObject@Base 0.16.0
 _ZN2Fm11PlacesModelD0Ev@Base 0.16.0
 _ZN2Fm11PlacesModelD1Ev@Base 0.16.0
 _ZN2Fm11PlacesModelD2Ev@Base 0.16.0
 _ZN2Fm11Thumbnailer16allThumbnailers_E@Base 0.16.0
 _ZN2Fm11Thumbnailer6mutex_E@Base 0.16.0
 _ZN2Fm11Thumbnailer7loadAllEv@Base 0.16.0
 _ZN2Fm11ThumbnailerC1EPKcP9_GKeyFile@Base 0.16.0
 _ZN2Fm11ThumbnailerC2EPKcP9_GKeyFile@Base 0.16.0
 _ZN2Fm11gidFromNameE7QString@Base 0.16.0
 _ZN2Fm11uidFromNameE7QString@Base 0.16.0
 _ZN2Fm12BookmarkItemC1ERKNS_8FilePathE7QString@Base 0.16.0
 _ZN2Fm12BookmarkItemC2ERKNS_8FilePathE7QString@Base 0.16.0
 _ZN2Fm12DirTreeModel10rootsAddedEv@Base 0.16.0
 _ZN2Fm12DirTreeModel11qt_metacallEN11QMetaObject4CallEiPPv@Base 0.16.0
 _ZN2Fm12DirTreeModel11qt_metacastEPKc@Base 0.16.0
 _ZN2Fm12DirTreeModel12dropMimeDataEPK9QMimeDataN2Qt10DropActionEiiRK11QModelIndex@Base 0.16.0
 _ZN2Fm12DirTreeModel13setShowHiddenEb@Base 0.16.0
 _ZN2Fm12DirTreeModel16staticMetaObjectE@Base 0.16.0
 _ZN2Fm12DirTreeModel21onFileInfoJobFinishedEv@Base 0.16.0
 _ZN2Fm12DirTreeModel4iconERK11QModelIndex@Base 0.16.0
 _ZN2Fm12DirTreeModel7addRootESt10shared_ptrIKNS_8FileInfoEE@Base 0.16.0
 _ZN2Fm12DirTreeModel7loadRowERK11QModelIndex@Base 0.16.0
 _ZN2Fm12DirTreeModel8addRootsESt6vectorINS_8FilePathESaIS2_EE@Base 0.16.0
 _ZN2Fm12DirTreeModel8dispNameERK11QModelIndex@Base 0.16.0
 _ZN2Fm12DirTreeModel8fileInfoERK11QModelIndex@Base 0.16.0
 _ZN2Fm12DirTreeModel8filePathERK11QModelIndex@Base 0.16.0
 _ZN2Fm12DirTreeModel8isLoadedERK11QModelIndex@Base 0.16.0
 _ZN2Fm12DirTreeModel9rowLoadedERK11QModelIndex@Base 0.16.0
 _ZN2Fm12DirTreeModel9unloadRowERK11QModelIndex@Base 0.16.0
 _ZN2Fm12DirTreeModelC1EP7QObject@Base 0.16.0
 _ZN2Fm12DirTreeModelC2EP7QObject@Base 0.16.0
 _ZN2Fm12DirTreeModelD0Ev@Base 0.16.0
 _ZN2Fm12DirTreeModelD1Ev@Base 0.16.0
 _ZN2Fm12DirTreeModelD2Ev@Base 0.16.0
 _ZN2Fm12FileLauncher10openFolderEP18_GAppLaunchContextRKNS_12FileInfoListERNS_9GErrorPtrE@Base 0.16.0
 _ZN2Fm12FileLauncher11askExecFileERKSt10shared_ptrIKNS_8FileInfoEE@Base 0.16.0
 _ZN2Fm12FileLauncher11launchFilesEP7QWidgetRKNS_12FileInfoListE@Base 0.16.0
 _ZN2Fm12FileLauncher11launchPathsEP7QWidgetRKSt6vectorINS_8FilePathESaIS4_EE@Base 0.16.0
 _ZN2Fm12FileLauncher13launchWithAppEP7QWidgetP9_GAppInfoRKSt6vectorINS_8FilePathESaIS6_EE@Base 1.1.0
 _ZN2Fm12FileLauncher16resetExecActionsEv@Base 1.2.0
 _ZN2Fm12FileLauncher3askEPKcPKPci@Base 0.16.0
 _ZN2Fm12FileLauncher9chooseAppERKNS_12FileInfoListEPKcRNS_9GErrorPtrE@Base 0.16.0
 _ZN2Fm12FileLauncher9showErrorEP18_GAppLaunchContextRKNS_9GErrorPtrERKNS_8FilePathERKSt10shared_ptrIKNS_8FileInfoEE@Base 0.16.0
 _ZN2Fm12FileLauncherC1Ev@Base 0.16.0
 _ZN2Fm12FileLauncherC2Ev@Base 0.16.0
 _ZN2Fm12FileLauncherD0Ev@Base 0.16.0
 _ZN2Fm12FileLauncherD1Ev@Base 0.16.0
 _ZN2Fm12FileLauncherD2Ev@Base 0.16.0
 _ZN2Fm12FolderConfig10getBooleanEPKcPb@Base 0.16.0
 _ZN2Fm12FolderConfig10getIntegerEPKcPi@Base 0.16.0
 _ZN2Fm12FolderConfig10setBooleanEPKcb@Base 0.16.0
 _ZN2Fm12FolderConfig10setIntegerEPKci@Base 0.16.0
 (arch=armel armhf hppa i386 mipsel powerpc sh4)_ZN2Fm12FolderConfig13getStringListEPKcPj@Base 1.1.0
 (arch=!armel !armhf !hppa !i386 !mipsel !powerpc !sh4)_ZN2Fm12FolderConfig13getStringListEPKcPm@Base 1.1.0
 (arch=armel armhf hppa i386 mipsel powerpc sh4)_ZN2Fm12FolderConfig13setStringListEPKcPKS2_j@Base 1.1.0
 (arch=!armel !armhf !hppa !i386 !mipsel !powerpc !sh4)_ZN2Fm12FolderConfig13setStringListEPKcPKS2_m@Base 1.1.0
 _ZN2Fm12FolderConfig17globalConfigFile_E@Base 0.16.0
 _ZN2Fm12FolderConfig4initEPKc@Base 0.16.0
 _ZN2Fm12FolderConfig4openERKNS_8FilePathE@Base 0.16.0
 _ZN2Fm12FolderConfig5closeERNS_9GErrorPtrE@Base 0.16.0
 _ZN2Fm12FolderConfig5purgeEv@Base 0.16.0
 _ZN2Fm12FolderConfig7isEmptyEv@Base 0.16.0
 _ZN2Fm12FolderConfig8finalizeEv@Base 0.16.0
 _ZN2Fm12FolderConfig9getDoubleEPKcPd@Base 0.16.0
 _ZN2Fm12FolderConfig9getStringEPKc@Base 0.16.0
 (arch=!armel !armhf !hppa !i386 !mipsel !powerpc !sh4)_ZN2Fm12FolderConfig9getUint64EPKcPm@Base 1.1.0
 (arch=armel armhf hppa i386 mipsel powerpc sh4)_ZN2Fm12FolderConfig9getUint64EPKcPy@Base 1.1.0
 _ZN2Fm12FolderConfig9removeKeyEPKc@Base 0.16.0
 _ZN2Fm12FolderConfig9saveCacheEv@Base 0.16.0
 _ZN2Fm12FolderConfig9setDoubleEPKcd@Base 0.16.0
 _ZN2Fm12FolderConfig9setStringEPKcS2_@Base 0.16.0
 (arch=!armel !armhf !hppa !i386 !mipsel !powerpc !sh4)_ZN2Fm12FolderConfig9setUint64EPKcm@Base 1.1.0
 (arch=armel armhf hppa i386 mipsel powerpc sh4)_ZN2Fm12FolderConfig9setUint64EPKcy@Base 1.1.0
 _ZN2Fm12FolderConfigC1ERKNS_8FilePathE@Base 0.16.0
 _ZN2Fm12FolderConfigC1Ev@Base 0.16.0
 _ZN2Fm12FolderConfigC2ERKNS_8FilePathE@Base 0.16.0
 _ZN2Fm12FolderConfigC2Ev@Base 0.16.0
 _ZN2Fm12FolderConfigD1Ev@Base 0.16.0
 _ZN2Fm12FolderConfigD2Ev@Base 0.16.0
 _ZN2Fm12RenameDialog11qt_metacallEN11QMetaObject4CallEiPPv@Base 0.16.0
 _ZN2Fm12RenameDialog11qt_metacastEPKc@Base 0.16.0
 _ZN2Fm12RenameDialog15onIgnoreClickedEv@Base 0.16.0
 _ZN2Fm12RenameDialog15onRenameClickedEv@Base 0.16.0
 _ZN2Fm12RenameDialog16staticMetaObjectE@Base 0.16.0
 _ZN2Fm12RenameDialog17onFileNameChangedE7QString@Base 0.16.0
 _ZN2Fm12RenameDialog6acceptEv@Base 0.16.0
 _ZN2Fm12RenameDialog6rejectEv@Base 0.16.0
 _ZN2Fm12RenameDialogC1ERKNS_8FileInfoES3_P7QWidget6QFlagsIN2Qt10WindowTypeEE@Base 0.16.0
 _ZN2Fm12RenameDialogC2ERKNS_8FileInfoES3_P7QWidget6QFlagsIN2Qt10WindowTypeEE@Base 0.16.0
 _ZN2Fm12RenameDialogD0Ev@Base 0.16.0
 _ZN2Fm12RenameDialogD1Ev@Base 0.16.0
 _ZN2Fm12RenameDialogD2Ev@Base 0.16.0
 _ZN2Fm12TemplateItemC1ESt10shared_ptrIKNS_8FileInfoEE@Base 0.16.0
 _ZN2Fm12TemplateItemC2ESt10shared_ptrIKNS_8FileInfoEE@Base 0.16.0
 _ZN2Fm12ThumbnailJob10threadPoolEv@Base 0.16.0
 _ZN2Fm12ThumbnailJob11loadForFileERKSt10shared_ptrIKNS_8FileInfoEE@Base 0.16.0
 _ZN2Fm12ThumbnailJob11qt_metacallEN11QMetaObject4CallEiPPv@Base 0.16.0
 _ZN2Fm12ThumbnailJob11qt_metacastEPKc@Base 0.16.0
 _ZN2Fm12ThumbnailJob11threadPool_E@Base 0.16.0
 _ZN2Fm12ThumbnailJob12readJpegExifEP13_GInputStreamR6QImageR10QTransform@Base 0.17.1
 _ZN2Fm12ThumbnailJob15localFilesOnly_E@Base 0.16.0
 _ZN2Fm12ThumbnailJob15thumbnailLoadedERKSt10shared_ptrIKNS_8FileInfoEEi6QImage@Base 0.16.0
 _ZN2Fm12ThumbnailJob16staticMetaObjectE@Base 0.16.0
 _ZN2Fm12ThumbnailJob17generateThumbnailERKSt10shared_ptrIKNS_8FileInfoEERKNS_8FilePathEPKcRK7QString@Base 0.16.0
 _ZN2Fm12ThumbnailJob17setLocalFilesOnlyEb@Base 0.16.0
 (arch=armel armhf hppa i386 mipsel powerpc sh4)_ZN2Fm12ThumbnailJob19readImageFromStreamEP13_GInputStreamj@Base 1.1.0
 (arch=!armel !armhf !hppa !i386 !mipsel !powerpc !sh4)_ZN2Fm12ThumbnailJob19readImageFromStreamEP13_GInputStreamm@Base 1.1.0
 _ZN2Fm12ThumbnailJob21maxThumbnailFileSize_E@Base 0.16.0
 _ZN2Fm12ThumbnailJob23setMaxThumbnailFileSizeEi@Base 0.16.0
 _ZN2Fm12ThumbnailJob29maxExternalThumbnailFileSize_E@Base 0.17.1
 _ZN2Fm12ThumbnailJob31setMaxExternalThumbnailFileSizeEi@Base 0.17.1
 _ZN2Fm12ThumbnailJob4execEv@Base 0.16.0
 _ZN2Fm12ThumbnailJobC1ENS_12FileInfoListEi@Base 0.16.0
 _ZN2Fm12ThumbnailJobC2ENS_12FileInfoListEi@Base 0.16.0
 _ZN2Fm12ThumbnailJobD0Ev@Base 0.16.0
 _ZN2Fm12ThumbnailJobD1Ev@Base 0.16.0
 _ZN2Fm12ThumbnailJobD2Ev@Base 0.16.0
 _ZN2Fm12TotalSizeJob11qt_metacallEN11QMetaObject4CallEiPPv@Base 0.16.0
 _ZN2Fm12TotalSizeJob11qt_metacastEPKc@Base 0.16.0
 _ZN2Fm12TotalSizeJob16staticMetaObjectE@Base 0.16.0
 _ZN2Fm12TotalSizeJob4execENS_8FilePathENS_10GObjectPtrI10_GFileInfoEE@Base 0.16.0
 _ZN2Fm12TotalSizeJob4execEv@Base 0.16.0
 _ZN2Fm12TotalSizeJobC1ESt6vectorINS_8FilePathESaIS2_EENS0_5FlagsE@Base 0.16.0
 _ZN2Fm12TotalSizeJobC2ESt6vectorINS_8FilePathESaIS2_EENS0_5FlagsE@Base 0.16.0
 _ZN2Fm13BrowseHistory11setMaxCountEi@Base 0.16.0
 _ZN2Fm13BrowseHistory15setCurrentIndexEi@Base 0.16.0
 _ZN2Fm13BrowseHistory3addENS_8FilePathEi@Base 0.16.0
 _ZN2Fm13BrowseHistory7forwardEv@Base 0.16.0
 _ZN2Fm13BrowseHistory8backwardEv@Base 0.16.0
 _ZN2Fm13BrowseHistoryC1Ev@Base 0.16.0
 _ZN2Fm13BrowseHistoryC2Ev@Base 0.16.0
 _ZN2Fm13BrowseHistoryD0Ev@Base 0.16.0
 _ZN2Fm13BrowseHistoryD1Ev@Base 0.16.0
 _ZN2Fm13BrowseHistoryD2Ev@Base 0.16.0
 _ZN2Fm13CreateNewMenu11onCreateNewEv@Base 0.16.0
 _ZN2Fm13CreateNewMenu11qt_metacallEN11QMetaObject4CallEiPPv@Base 0.16.0
 _ZN2Fm13CreateNewMenu11qt_metacastEPKc@Base 0.16.0
 _ZN2Fm13CreateNewMenu15addTemplateItemERKSt10shared_ptrIKNS_12TemplateItemEE@Base 0.16.0
 _ZN2Fm13CreateNewMenu15onCreateNewFileEv@Base 0.16.0
 _ZN2Fm13CreateNewMenu16staticMetaObjectE@Base 0.16.0
 _ZN2Fm13CreateNewMenu17onCreateNewFolderEv@Base 0.16.0
 _ZN2Fm13CreateNewMenu18removeTemplateItemERKSt10shared_ptrIKNS_12TemplateItemEE@Base 0.16.0
 _ZN2Fm13CreateNewMenu18updateTemplateItemERKSt10shared_ptrIKNS_12TemplateItemEES6_@Base 0.16.0
 _ZN2Fm13CreateNewMenuC1EP7QWidgetNS_8FilePathES2_@Base 0.16.0
 _ZN2Fm13CreateNewMenuC2EP7QWidgetNS_8FilePathES2_@Base 0.16.0
 _ZN2Fm13CreateNewMenuD0Ev@Base 0.16.0
 _ZN2Fm13CreateNewMenuD1Ev@Base 0.16.0
 _ZN2Fm13CreateNewMenuD2Ev@Base 0.16.0
 _ZN2Fm13FileOperation10onJobErrorERKNS_9GErrorPtrENS_3Job13ErrorSeverityERNS4_11ErrorActionE@Base 0.16.0
 _ZN2Fm13FileOperation10showDialogEv@Base 0.16.0
 _ZN2Fm13FileOperation10trashFilesESt6vectorINS_8FilePathESaIS2_EEbP7QWidget@Base 0.16.0
 _ZN2Fm13FileOperation11deleteFilesESt6vectorINS_8FilePathESaIS2_EEbP7QWidget@Base 0.16.0
 _ZN2Fm13FileOperation11onJobFinishEv@Base 0.16.0
 _ZN2Fm13FileOperation11onUiTimeoutEv@Base 0.16.0
 _ZN2Fm13FileOperation11qt_metacallEN11QMetaObject4CallEiPPv@Base 0.16.0
 _ZN2Fm13FileOperation11qt_metacastEPKc@Base 0.16.0
 _ZN2Fm13FileOperation12setDestFilesESt6vectorINS_8FilePathESaIS2_EE@Base 0.16.0
 _ZN2Fm13FileOperation12symlinkFilesESt6vectorINS_8FilePathESaIS2_EES2_P7QWidget@Base 0.16.0
 _ZN2Fm13FileOperation12symlinkFilesESt6vectorINS_8FilePathESaIS2_EES4_P7QWidget@Base 0.16.0
 _ZN2Fm13FileOperation12unTrashFilesESt6vectorINS_8FilePathESaIS2_EEP7QWidget@Base 0.16.0
 _ZN2Fm13FileOperation13disconnectJobEv@Base 0.16.0
 _ZN2Fm13FileOperation13onJobPreparedEv@Base 0.16.0
 _ZN2Fm13FileOperation14onJobCancalledEv@Base 0.16.0
 _ZN2Fm13FileOperation14setDestinationENS_8FilePathE@Base 0.16.0
 _ZN2Fm13FileOperation15changeAttrFilesESt6vectorINS_8FilePathESaIS2_EEP7QWidget@Base 0.16.0
 _ZN2Fm13FileOperation15onJobFileExistsERKNS_8FileInfoES3_RNS_16FileOperationJob16FileExistsActionERNS_8FilePathE@Base 0.16.0
 _ZN2Fm13FileOperation16staticMetaObjectE@Base 0.16.0
 _ZN2Fm13FileOperation18setRecursiveChattrEb@Base 0.16.0
 _ZN2Fm13FileOperation3runEv@Base 0.16.0
 _ZN2Fm13FileOperation6cancelEv@Base 0.16.0
 _ZN2Fm13FileOperation8finishedEv@Base 0.16.0
 _ZN2Fm13FileOperation8setChmodEjj@Base 0.16.0
 _ZN2Fm13FileOperation8setChownEjj@Base 0.16.0
 _ZN2Fm13FileOperation9copyFilesESt6vectorINS_8FilePathESaIS2_EES2_P7QWidget@Base 0.16.0
 _ZN2Fm13FileOperation9copyFilesESt6vectorINS_8FilePathESaIS2_EES4_P7QWidget@Base 0.16.0
 _ZN2Fm13FileOperation9moveFilesESt6vectorINS_8FilePathESaIS2_EES2_P7QWidget@Base 0.16.0
 _ZN2Fm13FileOperation9moveFilesESt6vectorINS_8FilePathESaIS2_EES4_P7QWidget@Base 0.16.0
 _ZN2Fm13FileOperationC1ENS0_4TypeESt6vectorINS_8FilePathESaIS3_EEP7QObject@Base 0.16.0
 _ZN2Fm13FileOperationC2ENS0_4TypeESt6vectorINS_8FilePathESaIS3_EEP7QObject@Base 0.16.0
 _ZN2Fm13FileOperationD0Ev@Base 0.16.0
 _ZN2Fm13FileOperationD1Ev@Base 0.16.0
 _ZN2Fm13FileOperationD2Ev@Base 0.16.0
 _ZN2Fm13UserInfoCache10userFromIdEj@Base 0.16.0
 _ZN2Fm13UserInfoCache11groupFromIdEj@Base 0.16.0
 _ZN2Fm13UserInfoCache11qt_metacallEN11QMetaObject4CallEiPPv@Base 0.16.0
 _ZN2Fm13UserInfoCache11qt_metacastEPKc@Base 0.16.0
 _ZN2Fm13UserInfoCache14globalInstanceEv@Base 0.16.0
 _ZN2Fm13UserInfoCache15globalInstance_E@Base 0.16.0
 _ZN2Fm13UserInfoCache16staticMetaObjectE@Base 0.16.0
 _ZN2Fm13UserInfoCache6mutex_E@Base 0.16.0
 _ZN2Fm13UserInfoCache7changedEv@Base 0.16.0
 _ZN2Fm13UserInfoCacheC1Ev@Base 0.16.0
 _ZN2Fm13UserInfoCacheC2Ev@Base 0.16.0
 _ZN2Fm13VolumeManager10mountAddedERKNS_5MountE@Base 0.16.0
 _ZN2Fm13VolumeManager11qt_metacallEN11QMetaObject4CallEiPPv@Base 0.16.0
 _ZN2Fm13VolumeManager11qt_metacastEPKc@Base 0.16.0
 _ZN2Fm13VolumeManager11volumeAddedERKNS_6VolumeE@Base 0.16.0
 _ZN2Fm13VolumeManager12mountChangedERKNS_5MountE@Base 0.16.0
 _ZN2Fm13VolumeManager12mountRemovedERKNS_5MountE@Base 0.16.0
 _ZN2Fm13VolumeManager13onGMountAddedEP7_GMount@Base 0.16.0
 _ZN2Fm13VolumeManager13volumeChangedERKNS_6VolumeE@Base 0.16.0
 _ZN2Fm13VolumeManager13volumeRemovedERKNS_6VolumeE@Base 0.16.0
 _ZN2Fm13VolumeManager14globalInstanceEv@Base 0.16.0
 _ZN2Fm13VolumeManager14onGVolumeAddedEP8_GVolume@Base 0.16.0
 _ZN2Fm13VolumeManager15globalInstance_E@Base 0.16.0
 _ZN2Fm13VolumeManager15onGMountChangedEP7_GMount@Base 0.16.0
 _ZN2Fm13VolumeManager15onGMountRemovedEP7_GMount@Base 0.16.0
 _ZN2Fm13VolumeManager16onGVolumeChangedEP8_GVolume@Base 0.16.0
 _ZN2Fm13VolumeManager16onGVolumeRemovedEP8_GVolume@Base 0.16.0
 _ZN2Fm13VolumeManager16staticMetaObjectE@Base 0.16.0
 _ZN2Fm13VolumeManager20GetGVolumeMonitorJob4execEv@Base 0.16.0
 _ZN2Fm13VolumeManager27onGetGVolumeMonitorFinishedEv@Base 0.16.0
 _ZN2Fm13VolumeManager6mutex_E@Base 0.16.0
 _ZN2Fm13VolumeManagerC1Ev@Base 0.16.0
 _ZN2Fm13VolumeManagerC2Ev@Base 0.16.0
 _ZN2Fm13VolumeManagerD0Ev@Base 0.16.0
 _ZN2Fm13VolumeManagerD1Ev@Base 0.16.0
 _ZN2Fm13VolumeManagerD2Ev@Base 0.16.0
 _ZN2Fm14BookmarkActionC1ESt10shared_ptrIKNS_12BookmarkItemEEP7QObject@Base 0.16.0
 _ZN2Fm14BookmarkActionC2ESt10shared_ptrIKNS_12BookmarkItemEEP7QObject@Base 0.16.0
 _ZN2Fm14MountOperation11qt_metacallEN11QMetaObject4CallEiPPv@Base 0.16.0
 _ZN2Fm14MountOperation11qt_metacastEPKc@Base 0.16.0
 _ZN2Fm14MountOperation12handleFinishEP7_GError@Base 0.16.0
 _ZN2Fm14MountOperation13onAskPasswordEP16_GMountOperationPcS3_S3_17GAskPasswordFlagsPS0_@Base 0.16.0
 _ZN2Fm14MountOperation13onAskQuestionEP16_GMountOperationPcPS3_PS0_@Base 0.16.0
 _ZN2Fm14MountOperation14mountMountableERKNS_8FilePathE@Base 0.16.0
 _ZN2Fm14MountOperation14prepareUnmountEP7_GMount@Base 0.16.0
 _ZN2Fm14MountOperation15onShowProcessesEP16_GMountOperationPcP7_GArrayPS3_PS0_@Base 0.16.0
 _ZN2Fm14MountOperation16staticMetaObjectE@Base 0.16.0
 _ZN2Fm14MountOperation19onEjectFileFinishedEP6_GFileP13_GAsyncResultP8QPointerIS0_E@Base 1.1.0
 _ZN2Fm14MountOperation19onMountFileFinishedEP6_GFileP13_GAsyncResultP8QPointerIS0_E@Base 0.16.0
 _ZN2Fm14MountOperation20mountEnclosingVolumeERKNS_8FilePathE@Base 0.16.0
 _ZN2Fm14MountOperation20onEjectMountFinishedEP7_GMountP13_GAsyncResultP8QPointerIS0_E@Base 0.16.0
 _ZN2Fm14MountOperation21onEjectVolumeFinishedEP8_GVolumeP13_GAsyncResultP8QPointerIS0_E@Base 0.16.0
 _ZN2Fm14MountOperation21onMountVolumeFinishedEP8_GVolumeP13_GAsyncResultP8QPointerIS0_E@Base 0.16.0
 (arch=!armel !armhf !hppa !i386 !mipsel !powerpc !sh4)_ZN2Fm14MountOperation21onShowUnmountProgressEP16_GMountOperationPcllPS0_@Base 1.1.0
 (arch=armel armhf hppa i386 mipsel powerpc sh4)_ZN2Fm14MountOperation21onShowUnmountProgressEP16_GMountOperationPcxxPS0_@Base 1.1.0
 _ZN2Fm14MountOperation21onUnmountFileFinishedEP6_GFileP13_GAsyncResultP8QPointerIS0_E@Base 1.1.0
 _ZN2Fm14MountOperation22onUnmountMountFinishedEP7_GMountP13_GAsyncResultP8QPointerIS0_E@Base 0.16.0
 _ZN2Fm14MountOperation24onMountMountableFinishedEP6_GFileP13_GAsyncResultP8QPointerIS0_E@Base 0.16.0
 _ZN2Fm14MountOperation4waitEv@Base 0.16.0
 _ZN2Fm14MountOperation7onAbortEP16_GMountOperationPS0_@Base 0.16.0
 _ZN2Fm14MountOperation8finishedEP7_GError@Base 0.16.0
 _ZN2Fm14MountOperationC1EbP7QWidget@Base 0.16.0
 _ZN2Fm14MountOperationC2EbP7QWidget@Base 0.16.0
 _ZN2Fm14MountOperationD0Ev@Base 0.16.0
 _ZN2Fm14MountOperationD1Ev@Base 0.16.0
 _ZN2Fm14MountOperationD2Ev@Base 0.16.0
 _ZN2Fm14changeFileNameERKNS_8FilePathERK7QStringP7QWidgetb@Base 0.16.0
 (arch=!armel !armhf !hppa !i386 !mipsel !powerpc !sh4)_ZN2Fm14formatFileSizeEmb@Base 1.1.0
 (arch=armel armhf hppa i386 mipsel powerpc sh4)_ZN2Fm14formatFileSizeEyb@Base 1.1.0
 _ZN2Fm14launchTerminalEPKcRKNS_8FilePathERNS_9GErrorPtrE@Base 0.16.0
 _ZN2Fm15FilePropsDialog11qt_metacallEN11QMetaObject4CallEiPPv@Base 0.16.0
 _ZN2Fm15FilePropsDialog11qt_metacastEPKc@Base 0.16.0
 _ZN2Fm15FilePropsDialog15initGeneralPageEv@Base 0.16.0
 _ZN2Fm15FilePropsDialog16initApplicationsEv@Base 0.16.0
 _ZN2Fm15FilePropsDialog16staticMetaObjectE@Base 0.16.0
 _ZN2Fm15FilePropsDialog19initPermissionsPageEv@Base 0.16.0
 _ZN2Fm15FilePropsDialog19onIconButtonclickedEv@Base 0.16.0
 _ZN2Fm15FilePropsDialog21onEmblemButtonclickedEv@Base 1.1.0
 _ZN2Fm15FilePropsDialog22onDeepCountJobFinishedEv@Base 0.16.0
 _ZN2Fm15FilePropsDialog22onFileSizeTimerTimeoutEv@Base 0.16.0
 _ZN2Fm15FilePropsDialog26onClearEmblemButtonclickedEv@Base 1.1.0
 _ZN2Fm15FilePropsDialog6acceptEv@Base 0.16.0
 _ZN2Fm15FilePropsDialog9initOwnerEv@Base 0.16.0
 _ZN2Fm15FilePropsDialogC1ENS_12FileInfoListEP7QWidget6QFlagsIN2Qt10WindowTypeEE@Base 0.16.0
 _ZN2Fm15FilePropsDialogC2ENS_12FileInfoListEP7QWidget6QFlagsIN2Qt10WindowTypeEE@Base 0.16.0
 _ZN2Fm15FilePropsDialogD0Ev@Base 0.16.0
 _ZN2Fm15FilePropsDialogD1Ev@Base 0.16.0
 _ZN2Fm15FilePropsDialogD2Ev@Base 0.16.0
 _ZN2Fm15FileTransferJob11handleErrorERNS_9GErrorPtrERKNS_8FilePathERKNS_10GObjectPtrI10_GFileInfoEERS3_Ri@Base 0.16.0
 _ZN2Fm15FileTransferJob11processPathERKNS_8FilePathES3_PKc@Base 0.16.0
 _ZN2Fm15FileTransferJob11qt_metacallEN11QMetaObject4CallEiPPv@Base 0.16.0
 _ZN2Fm15FileTransferJob11qt_metacastEPKc@Base 0.16.0
 _ZN2Fm15FileTransferJob11setSrcPathsESt6vectorINS_8FilePathESaIS2_EE@Base 0.16.0
 _ZN2Fm15FileTransferJob12setDestPathsESt6vectorINS_8FilePathESaIS2_EE@Base 0.16.0
 _ZN2Fm15FileTransferJob13createSymlinkERKNS_8FilePathERKNS_10GObjectPtrI10_GFileInfoEERS1_@Base 0.16.0
 _ZN2Fm15FileTransferJob14copyDirContentERKNS_8FilePathENS_10GObjectPtrI10_GFileInfoEERS1_b@Base 0.16.0
 _ZN2Fm15FileTransferJob14createShortcutERKNS_8FilePathERKNS_10GObjectPtrI10_GFileInfoEERS1_@Base 0.16.0
 _ZN2Fm15FileTransferJob14moveFileSameFsERKNS_8FilePathERKNS_10GObjectPtrI10_GFileInfoEERS1_@Base 0.16.0
 _ZN2Fm15FileTransferJob14setDestDirPathERKNS_8FilePathE@Base 0.16.0
 _ZN2Fm15FileTransferJob15copyRegularFileERKNS_8FilePathERKNS_10GObjectPtrI10_GFileInfoEERS1_@Base 0.16.0
 _ZN2Fm15FileTransferJob15copySpecialFileERKNS_8FilePathERKNS_10GObjectPtrI10_GFileInfoEERS1_@Base 0.16.0
 _ZN2Fm15FileTransferJob16staticMetaObjectE@Base 0.16.0
 (arch=!armel !armhf !hppa !i386 !mipsel !powerpc !sh4)_ZN2Fm15FileTransferJob25gfileCopyProgressCallbackEllPS0_@Base 1.1.0
 (arch=armel armhf hppa i386 mipsel powerpc sh4)_ZN2Fm15FileTransferJob25gfileCopyProgressCallbackExxPS0_@Base 1.1.0
 _ZN2Fm15FileTransferJob4execEv@Base 0.16.0
 _ZN2Fm15FileTransferJob7makeDirERKNS_8FilePathENS_10GObjectPtrI10_GFileInfoEERS1_@Base 0.16.0
 _ZN2Fm15FileTransferJob8copyFileERKNS_8FilePathERKNS_10GObjectPtrI10_GFileInfoEES3_PKcb@Base 0.16.0
 _ZN2Fm15FileTransferJob8linkFileERKNS_8FilePathERKNS_10GObjectPtrI10_GFileInfoEES3_PKc@Base 0.16.0
 _ZN2Fm15FileTransferJob8moveFileERKNS_8FilePathERKNS_10GObjectPtrI10_GFileInfoEES3_PKc@Base 0.16.0
 _ZN2Fm15FileTransferJobC1ESt6vectorINS_8FilePathESaIS2_EENS0_4ModeE@Base 0.16.0
 _ZN2Fm15FileTransferJobC1ESt6vectorINS_8FilePathESaIS2_EERKS2_NS0_4ModeE@Base 0.16.0
 _ZN2Fm15FileTransferJobC1ESt6vectorINS_8FilePathESaIS2_EES4_NS0_4ModeE@Base 0.16.0
 _ZN2Fm15FileTransferJobC2ESt6vectorINS_8FilePathESaIS2_EENS0_4ModeE@Base 0.16.0
 _ZN2Fm15FileTransferJobC2ESt6vectorINS_8FilePathESaIS2_EERKS2_NS0_4ModeE@Base 0.16.0
 _ZN2Fm15FileTransferJobC2ESt6vectorINS_8FilePathESaIS2_EES4_NS0_4ModeE@Base 0.16.0
 _ZN2Fm15FolderModelItem13findThumbnailEi@Base 0.16.0
 _ZN2Fm15FolderModelItem15removeThumbnailEi@Base 0.16.0
 _ZN2Fm15FolderModelItemC1ERKS0_@Base 0.16.0
 _ZN2Fm15FolderModelItemC1ERKSt10shared_ptrIKNS_8FileInfoEE@Base 0.16.0
 _ZN2Fm15FolderModelItemC2ERKS0_@Base 0.16.0
 _ZN2Fm15FolderModelItemC2ERKSt10shared_ptrIKNS_8FileInfoEE@Base 0.16.0
 _ZN2Fm15FolderModelItemD0Ev@Base 0.16.0
 _ZN2Fm15FolderModelItemD1Ev@Base 0.16.0
 _ZN2Fm15FolderModelItemD2Ev@Base 0.16.0
 _ZN2Fm15PlacesModelItem10updateIconEv@Base 0.16.0
 _ZN2Fm15PlacesModelItem7setIconEP6_GIcon@Base 0.16.0
 _ZN2Fm15PlacesModelItem7setIconESt10shared_ptrIKNS_8IconInfoEE@Base 0.16.0
 _ZN2Fm15PlacesModelItemC1E5QIcon7QStringNS_8FilePathE@Base 0.16.0
 _ZN2Fm15PlacesModelItemC1EPKc7QStringNS_8FilePathE@Base 0.16.0
 _ZN2Fm15PlacesModelItemC1ESt10shared_ptrIKNS_8IconInfoEE7QStringNS_8FilePathE@Base 0.16.0
 _ZN2Fm15PlacesModelItemC1Ev@Base 0.16.0
 _ZN2Fm15PlacesModelItemC2E5QIcon7QStringNS_8FilePathE@Base 0.16.0
 _ZN2Fm15PlacesModelItemC2EPKc7QStringNS_8FilePathE@Base 0.16.0
 _ZN2Fm15PlacesModelItemC2ESt10shared_ptrIKNS_8IconInfoEE7QStringNS_8FilePathE@Base 0.16.0
 _ZN2Fm15PlacesModelItemC2Ev@Base 0.16.0
 _ZN2Fm15PlacesModelItemD0Ev@Base 0.16.0
 _ZN2Fm15PlacesModelItemD1Ev@Base 0.16.0
 _ZN2Fm15PlacesModelItemD2Ev@Base 0.16.0
 _ZN2Fm15defaultTerminalB5cxx11Ev@Base 0.16.0
 _ZN2Fm16AppChooserDialog11qt_metacallEN11QMetaObject4CallEiPPv@Base 0.16.0
 _ZN2Fm16AppChooserDialog11qt_metacastEPKc@Base 0.16.0
 _ZN2Fm16AppChooserDialog11setMimeTypeESt10shared_ptrIKNS_8MimeTypeEE@Base 0.16.0
 _ZN2Fm16AppChooserDialog12onTabChangedEi@Base 0.16.0
 _ZN2Fm16AppChooserDialog16setCanSetDefaultEb@Base 0.16.0
 _ZN2Fm16AppChooserDialog16staticMetaObjectE@Base 0.16.0
 _ZN2Fm16AppChooserDialog18customCommandToAppEv@Base 0.16.0
 _ZN2Fm16AppChooserDialog18onSelectionChangedEv@Base 0.16.0
 _ZN2Fm16AppChooserDialog6acceptEv@Base 0.16.0
 _ZN2Fm16AppChooserDialogC1ESt10shared_ptrIKNS_8MimeTypeEEP7QWidget6QFlagsIN2Qt10WindowTypeEE@Base 0.16.0
 _ZN2Fm16AppChooserDialogC2ESt10shared_ptrIKNS_8MimeTypeEEP7QWidget6QFlagsIN2Qt10WindowTypeEE@Base 0.16.0
 _ZN2Fm16AppChooserDialogD0Ev@Base 0.16.0
 _ZN2Fm16AppChooserDialogD1Ev@Base 0.16.0
 _ZN2Fm16AppChooserDialogD2Ev@Base 0.16.0
 _ZN2Fm16DirTreeModelItem10freeFolderEv@Base 0.16.0
 _ZN2Fm16DirTreeModelItem10insertFileESt10shared_ptrIKNS_8FileInfoEE@Base 0.16.0
 _ZN2Fm16DirTreeModelItem10insertItemEPS0_@Base 0.16.0
 _ZN2Fm16DirTreeModelItem10loadFolderEv@Base 0.16.0
 _ZN2Fm16DirTreeModelItem11insertFilesENS_12FileInfoListE@Base 0.16.0
 _ZN2Fm16DirTreeModelItem12unloadFolderEv@Base 0.16.0
 _ZN2Fm16DirTreeModelItem13childFromNameEPKcPi@Base 0.16.0
 _ZN2Fm16DirTreeModelItem13setShowHiddenEb@Base 0.16.0
 _ZN2Fm16DirTreeModelItem18onFolderFilesAddedERNS_12FileInfoListE@Base 0.16.0
 _ZN2Fm16DirTreeModelItem19addPlaceHolderChildEv@Base 0.16.0
 _ZN2Fm16DirTreeModelItem20onFolderFilesChangedERSt6vectorISt4pairISt10shared_ptrIKNS_8FileInfoEES6_ESaIS7_EE@Base 0.16.0
 _ZN2Fm16DirTreeModelItem20onFolderFilesRemovedERNS_12FileInfoListE@Base 0.16.0
 _ZN2Fm16DirTreeModelItem21onFolderFinishLoadingEv@Base 0.16.0
 _ZN2Fm16DirTreeModelItem5indexEv@Base 0.16.0
 _ZN2Fm16DirTreeModelItemC1ESt10shared_ptrIKNS_8FileInfoEEPNS_12DirTreeModelEPS0_@Base 0.16.0
 _ZN2Fm16DirTreeModelItemC1Ev@Base 0.16.0
 _ZN2Fm16DirTreeModelItemC2ESt10shared_ptrIKNS_8FileInfoEEPNS_12DirTreeModelEPS0_@Base 0.16.0
 _ZN2Fm16DirTreeModelItemC2Ev@Base 0.16.0
 _ZN2Fm16DirTreeModelItemD1Ev@Base 0.16.0
 _ZN2Fm16DirTreeModelItemD2Ev@Base 0.16.0
 _ZN2Fm16FileDialogHelper10selectFileERK4QUrl@Base 0.16.0
 _ZN2Fm16FileDialogHelper11qt_metacallEN11QMetaObject4CallEiPPv@Base 0.16.0
 _ZN2Fm16FileDialogHelper11qt_metacastEPKc@Base 0.16.0
 _ZN2Fm16FileDialogHelper12applyOptionsEv@Base 0.16.0
 _ZN2Fm16FileDialogHelper12loadSettingsEv@Base 0.16.0
 _ZN2Fm16FileDialogHelper12saveSettingsEv@Base 0.16.0
 _ZN2Fm16FileDialogHelper12setDirectoryERK4QUrl@Base 0.16.0
 _ZN2Fm16FileDialogHelper16selectNameFilterERK7QString@Base 0.16.0
 _ZN2Fm16FileDialogHelper16staticMetaObjectE@Base 0.16.0
 _ZN2Fm16FileDialogHelper20selectMimeTypeFilterERK7QString@Base 0.16.0
 _ZN2Fm16FileDialogHelper4execEv@Base 0.16.0
 _ZN2Fm16FileDialogHelper4hideEv@Base 0.16.0
 _ZN2Fm16FileDialogHelper4showE6QFlagsIN2Qt10WindowTypeEENS2_14WindowModalityEP7QWindow@Base 0.16.0
 _ZN2Fm16FileDialogHelper9setFilterEv@Base 0.16.0
 _ZN2Fm16FileDialogHelperC1Ev@Base 0.16.0
 _ZN2Fm16FileDialogHelperC2Ev@Base 0.16.0
 _ZN2Fm16FileDialogHelperD0Ev@Base 0.16.0
 _ZN2Fm16FileDialogHelperD1Ev@Base 0.16.0
 _ZN2Fm16FileDialogHelperD2Ev@Base 0.16.0
 _ZN2Fm16FileOperationJob10fileExistsERKNS_8FileInfoES3_RNS0_16FileExistsActionERNS_8FilePathE@Base 0.16.0
 _ZN2Fm16FileOperationJob11qt_metacallEN11QMetaObject4CallEiPPv@Base 0.16.0
 _ZN2Fm16FileOperationJob11qt_metacastEPKc@Base 0.16.0
 _ZN2Fm16FileOperationJob13preparedToRunEv@Base 0.16.0
 _ZN2Fm16FileOperationJob14setCurrentFileERKNS_8FilePathE@Base 0.16.0
 (arch=!armel !armhf !hppa !i386 !mipsel !powerpc !sh4)_ZN2Fm16FileOperationJob14setTotalAmountEmm@Base 1.1.0
 (arch=armel armhf hppa i386 mipsel powerpc sh4)_ZN2Fm16FileOperationJob14setTotalAmountEyy@Base 1.1.0
 _ZN2Fm16FileOperationJob16staticMetaObjectE@Base 0.16.0
 (arch=!armel !armhf !hppa !i386 !mipsel !powerpc !sh4)_ZN2Fm16FileOperationJob17addFinishedAmountEmm@Base 1.1.0
 (arch=armel armhf hppa i386 mipsel powerpc sh4)_ZN2Fm16FileOperationJob17addFinishedAmountEyy@Base 1.1.0
 (arch=!armel !armhf !hppa !i386 !mipsel !powerpc !sh4)_ZN2Fm16FileOperationJob17setFinishedAmountEmm@Base 1.1.0
 (arch=armel armhf hppa i386 mipsel powerpc sh4)_ZN2Fm16FileOperationJob17setFinishedAmountEyy@Base 1.1.0
 (arch=!armel !armhf !hppa !i386 !mipsel !powerpc !sh4)_ZN2Fm16FileOperationJob22setCurrentFileProgressEmm@Base 1.1.0
 (arch=armel armhf hppa i386 mipsel powerpc sh4)_ZN2Fm16FileOperationJob22setCurrentFileProgressEyy@Base 1.1.0
 _ZN2Fm16FileOperationJob9askRenameERKNS_8FileInfoES3_RNS_8FilePathE@Base 0.16.0
 _ZN2Fm16FileOperationJobC1Ev@Base 0.16.0
 _ZN2Fm16FileOperationJobC2Ev@Base 0.16.0
 _ZN2Fm16FileSearchDialog12onRemovePathEv@Base 0.16.0
 _ZN2Fm16FileSearchDialog12setRecursiveEb@Base 0.16.0
 _ZN2Fm16FileSearchDialog13setNameRegexpEb@Base 0.16.0
 _ZN2Fm16FileSearchDialog15addNamePatternsERK11QStringList@Base 1.1.0
 _ZN2Fm16FileSearchDialog16setContentRegexpEb@Base 0.16.0
 _ZN2Fm16FileSearchDialog16setSearchhHiddenEb@Base 0.16.0
 _ZN2Fm16FileSearchDialog18addContentPatternsERK11QStringList@Base 1.1.0
 _ZN2Fm16FileSearchDialog22setNameCaseInsensitiveEb@Base 0.16.0
 _ZN2Fm16FileSearchDialog25setContentCaseInsensitiveEb@Base 0.16.0
 _ZN2Fm16FileSearchDialog6acceptEv@Base 0.16.0
 _ZN2Fm16FileSearchDialog9onAddPathEv@Base 0.16.0
 _ZN2Fm16FileSearchDialogC1E11QStringListP7QWidget6QFlagsIN2Qt10WindowTypeEE@Base 0.16.0
 _ZN2Fm16FileSearchDialogC2E11QStringListP7QWidget6QFlagsIN2Qt10WindowTypeEE@Base 0.16.0
 _ZN2Fm16FileSearchDialogD0Ev@Base 0.16.0
 _ZN2Fm16FileSearchDialogD1Ev@Base 0.16.0
 _ZN2Fm16FileSearchDialogD2Ev@Base 0.16.0
 _ZN2Fm16PlacesProxyModel11qt_metacallEN11QMetaObject4CallEiPPv@Base 0.16.0
 _ZN2Fm16PlacesProxyModel11qt_metacastEPKc@Base 0.16.0
 _ZN2Fm16PlacesProxyModel16staticMetaObjectE@Base 0.16.0
 _ZN2Fm16PlacesProxyModel18restoreHiddenItemsERK4QSetI7QStringE@Base 0.16.0
 _ZN2Fm16PlacesProxyModel7showAllEb@Base 0.16.0
 _ZN2Fm16PlacesProxyModel9setHiddenERK7QStringb@Base 0.16.0
 _ZN2Fm16PlacesProxyModelC1EP7QObject@Base 0.16.0
 _ZN2Fm16PlacesProxyModelC2EP7QObject@Base 0.16.0
 _ZN2Fm16PlacesProxyModelD0Ev@Base 0.16.0
 _ZN2Fm16PlacesProxyModelD1Ev@Base 0.16.0
 _ZN2Fm16PlacesProxyModelD2Ev@Base 0.16.0
 _ZN2Fm16ProxyFolderModel11qt_metacallEN11QMetaObject4CallEiPPv@Base 0.16.0
 _ZN2Fm16ProxyFolderModel11qt_metacastEPKc@Base 0.16.0
 _ZN2Fm16ProxyFolderModel12removeFilterEPNS_22ProxyFolderModelFilterE@Base 0.16.0
 _ZN2Fm16ProxyFolderModel13setHiddenLastEb@Base 0.16.0
 _ZN2Fm16ProxyFolderModel13setShowHiddenEb@Base 0.16.0
 _ZN2Fm16ProxyFolderModel13updateFiltersEv@Base 0.16.0
 _ZN2Fm16ProxyFolderModel14setFolderFirstEb@Base 0.16.0
 _ZN2Fm16ProxyFolderModel14setSourceModelEP18QAbstractItemModel@Base 0.16.0
 _ZN2Fm16ProxyFolderModel16setThumbnailSizeEi@Base 0.16.0
 _ZN2Fm16ProxyFolderModel16staticMetaObjectE@Base 0.16.0
 _ZN2Fm16ProxyFolderModel17onThumbnailLoadedERK11QModelIndexi@Base 0.16.0
 _ZN2Fm16ProxyFolderModel17setBackupAsHiddenEb@Base 0.16.0
 _ZN2Fm16ProxyFolderModel17setShowThumbnailsEb@Base 0.16.0
 _ZN2Fm16ProxyFolderModel17sortFilterChangedEv@Base 0.16.0
 _ZN2Fm16ProxyFolderModel22setSortCaseSensitivityEN2Qt15CaseSensitivityE@Base 0.16.0
 _ZN2Fm16ProxyFolderModel4sortEiN2Qt9SortOrderE@Base 0.16.0
 _ZN2Fm16ProxyFolderModel9addFilterEPNS_22ProxyFolderModelFilterE@Base 0.16.0
 _ZN2Fm16ProxyFolderModelC1EP7QObject@Base 0.16.0
 _ZN2Fm16ProxyFolderModelC2EP7QObject@Base 0.16.0
 _ZN2Fm16ProxyFolderModelD0Ev@Base 0.16.0
 _ZN2Fm16ProxyFolderModelD1Ev@Base 0.16.0
 _ZN2Fm16ProxyFolderModelD2Ev@Base 0.16.0
 _ZN2Fm17BasicFileLauncher10openFolderEP18_GAppLaunchContextRKNS_12FileInfoListERNS_9GErrorPtrE@Base 0.16.0
 _ZN2Fm17BasicFileLauncher11askExecFileERKSt10shared_ptrIKNS_8FileInfoEE@Base 0.16.0
 _ZN2Fm17BasicFileLauncher11launchFilesERKNS_12FileInfoListEP18_GAppLaunchContext@Base 0.16.0
 _ZN2Fm17BasicFileLauncher11launchPathsESt6vectorINS_8FilePathESaIS2_EEP18_GAppLaunchContext@Base 0.16.0
 _ZN2Fm17BasicFileLauncher13launchWithAppEP9_GAppInfoRKSt6vectorINS_8FilePathESaIS4_EEP18_GAppLaunchContext@Base 0.16.0
 _ZN2Fm17BasicFileLauncher14handleShortcutERKSt10shared_ptrIKNS_8FileInfoEEP18_GAppLaunchContext@Base 0.16.0
 _ZN2Fm17BasicFileLauncher16launchExecutableERKSt10shared_ptrIKNS_8FileInfoEEP18_GAppLaunchContext@Base 0.16.0
 _ZN2Fm17BasicFileLauncher18launchDesktopEntryEPKcRKSt6vectorINS_8FilePathESaIS4_EEP18_GAppLaunchContext@Base 0.16.0
 _ZN2Fm17BasicFileLauncher18launchDesktopEntryERKSt10shared_ptrIKNS_8FileInfoEERKSt6vectorINS_8FilePathESaIS8_EEP18_GAppLaunchContext@Base 0.16.0
 _ZN2Fm17BasicFileLauncher20launchWithDefaultAppERKSt10shared_ptrIKNS_8FileInfoEEP18_GAppLaunchContext@Base 0.16.0
 _ZN2Fm17BasicFileLauncher3askEPKcPKPci@Base 0.16.0
 _ZN2Fm17BasicFileLauncher9chooseAppERKNS_12FileInfoListEPKcRNS_9GErrorPtrE@Base 0.16.0
 _ZN2Fm17BasicFileLauncher9showErrorEP18_GAppLaunchContextRKNS_9GErrorPtrERKNS_8FilePathERKSt10shared_ptrIKNS_8FileInfoEE@Base 0.16.0
 _ZN2Fm17BasicFileLauncherC1Ev@Base 0.16.0
 _ZN2Fm17BasicFileLauncherC2Ev@Base 0.16.0
 _ZN2Fm17BasicFileLauncherD0Ev@Base 0.16.0
 _ZN2Fm17BasicFileLauncherD1Ev@Base 0.16.0
 _ZN2Fm17BasicFileLauncherD2Ev@Base 0.16.0
 _ZN2Fm17CachedFolderModel11qt_metacallEN11QMetaObject4CallEiPPv@Base 0.16.0
 _ZN2Fm17CachedFolderModel11qt_metacastEPKc@Base 0.16.0
 _ZN2Fm17CachedFolderModel13modelFromPathERKNS_8FilePathE@Base 0.16.0
 _ZN2Fm17CachedFolderModel15modelFromFolderERKSt10shared_ptrINS_6FolderEE@Base 0.16.0
 _ZN2Fm17CachedFolderModel16staticMetaObjectE@Base 0.16.0
 _ZN2Fm17CachedFolderModel5unrefEv@Base 0.16.0
 _ZN2Fm17CachedFolderModelC1ERKSt10shared_ptrINS_6FolderEE@Base 0.16.0
 _ZN2Fm17CachedFolderModelC2ERKSt10shared_ptrINS_6FolderEE@Base 0.16.0
 _ZN2Fm17CachedFolderModelD0Ev@Base 0.16.0
 _ZN2Fm17CachedFolderModelD1Ev@Base 0.16.0
 _ZN2Fm17CachedFolderModelD2Ev@Base 0.16.0
 _ZN2Fm17FileChangeAttrJob11handleErrorERNS_9GErrorPtrERKNS_8FilePathERKNS_10GObjectPtrI10_GFileInfoEENS_3Job13ErrorSeverityE@Base 0.16.0
 _ZN2Fm17FileChangeAttrJob11processFileERKNS_8FilePathERKNS_10GObjectPtrI10_GFileInfoEE@Base 0.16.0
 _ZN2Fm17FileChangeAttrJob11qt_metacallEN11QMetaObject4CallEiPPv@Base 0.16.0
 _ZN2Fm17FileChangeAttrJob11qt_metacastEPKc@Base 0.16.0
 _ZN2Fm17FileChangeAttrJob14changeFileIconERKNS_8FilePathERKNS_10GObjectPtrI10_GFileInfoEERNS4_I6_GIconEE@Base 0.16.0
 _ZN2Fm17FileChangeAttrJob14changeFileModeERKNS_8FilePathERKNS_10GObjectPtrI10_GFileInfoEEjj@Base 0.16.0
 _ZN2Fm17FileChangeAttrJob15changeFileGroupERKNS_8FilePathERKNS_10GObjectPtrI10_GFileInfoEEj@Base 0.16.0
 _ZN2Fm17FileChangeAttrJob15changeFileOwnerERKNS_8FilePathERKNS_10GObjectPtrI10_GFileInfoEEj@Base 0.16.0
 _ZN2Fm17FileChangeAttrJob16changeFileHiddenERKNS_8FilePathERKNS_10GObjectPtrI10_GFileInfoEEb@Base 0.16.0
 _ZN2Fm17FileChangeAttrJob16staticMetaObjectE@Base 0.16.0
 _ZN2Fm17FileChangeAttrJob19changeFileTargetUriERKNS_8FilePathERKNS_10GObjectPtrI10_GFileInfoEEPKc@Base 0.16.0
 _ZN2Fm17FileChangeAttrJob21changeFileDisplayNameERKNS_8FilePathERKNS_10GObjectPtrI10_GFileInfoEEPKc@Base 0.16.0
 _ZN2Fm17FileChangeAttrJob4execEv@Base 0.16.0
 _ZN2Fm17FileChangeAttrJobC1ESt6vectorINS_8FilePathESaIS2_EE@Base 0.16.0
 _ZN2Fm17FileChangeAttrJobC2ESt6vectorINS_8FilePathESaIS2_EE@Base 0.16.0
 _ZN2Fm17FileSystemInfoJob11qt_metacallEN11QMetaObject4CallEiPPv@Base 0.16.0
 _ZN2Fm17FileSystemInfoJob11qt_metacastEPKc@Base 0.16.0
 _ZN2Fm17FileSystemInfoJob16staticMetaObjectE@Base 0.16.0
 _ZN2Fm17FileSystemInfoJob4execEv@Base 0.16.0
 _ZN2Fm17allKnownTerminalsEv@Base 0.16.0
 _ZN2Fm17pathListFromQUrlsE5QListI4QUrlE@Base 0.16.0
 _ZN2Fm17pathListToUriListERKSt6vectorINS_8FilePathESaIS1_EE@Base 0.16.0
 _ZN2Fm18AppChooserComboBox11qt_metacallEN11QMetaObject4CallEiPPv@Base 0.16.0
 _ZN2Fm18AppChooserComboBox11qt_metacastEPKc@Base 0.16.0
 _ZN2Fm18AppChooserComboBox11setMimeTypeESt10shared_ptrIKNS_8MimeTypeEE@Base 0.16.0
 _ZN2Fm18AppChooserComboBox16staticMetaObjectE@Base 0.16.0
 _ZN2Fm18AppChooserComboBox21onCurrentIndexChangedEi@Base 0.16.0
 _ZN2Fm18AppChooserComboBoxC1EP7QWidget@Base 0.16.0
 _ZN2Fm18AppChooserComboBoxC2EP7QWidget@Base 0.16.0
 _ZN2Fm18AppChooserComboBoxD0Ev@Base 0.16.0
 _ZN2Fm18AppChooserComboBoxD1Ev@Base 0.16.0
 _ZN2Fm18AppChooserComboBoxD2Ev@Base 0.16.0
 _ZN2Fm18FolderItemDelegate11eventFilterEP7QObjectP6QEvent@Base 0.16.0
 _ZN2Fm18FolderItemDelegate11qt_metacallEN11QMetaObject4CallEiPPv@Base 0.16.0
 _ZN2Fm18FolderItemDelegate11qt_metacastEPKc@Base 0.16.0
 _ZN2Fm18FolderItemDelegate16staticMetaObjectE@Base 0.16.0
 _ZN2Fm18FolderItemDelegate17iconModeFromStateE6QFlagsIN6QStyle9StateFlagEE@Base 0.16.0
 _ZN2Fm18FolderItemDelegateC1EP17QAbstractItemViewP7QObject@Base 0.16.0
 _ZN2Fm18FolderItemDelegateC2EP17QAbstractItemViewP7QObject@Base 0.16.0
 _ZN2Fm18FolderItemDelegateD0Ev@Base 0.16.0
 _ZN2Fm18FolderItemDelegateD1Ev@Base 0.16.0
 _ZN2Fm18FolderItemDelegateD2Ev@Base 0.16.0
 _ZN2Fm18createFileOrFolderENS_14CreateFileTypeENS_8FilePathEPKNS_12TemplateItemEP7QWidget@Base 0.16.0
 _ZN2Fm18execModelessDialogEP7QDialog@Base 0.16.0
 _ZN2Fm18setDefaultTerminalENSt7__cxx1112basic_stringIcSt11char_traitsIcESaIcEEE@Base 0.16.0
 _ZN2Fm19EditBookmarksDialog11qt_metacallEN11QMetaObject4CallEiPPv@Base 0.16.0
 _ZN2Fm19EditBookmarksDialog11qt_metacastEPKc@Base 0.16.0
 _ZN2Fm19EditBookmarksDialog12onRemoveItemEv@Base 0.16.0
 _ZN2Fm19EditBookmarksDialog16staticMetaObjectE@Base 0.16.0
 _ZN2Fm19EditBookmarksDialog6acceptEv@Base 0.16.0
 _ZN2Fm19EditBookmarksDialog9onAddItemEv@Base 0.16.0
 _ZN2Fm19EditBookmarksDialogC1ESt10shared_ptrINS_9BookmarksEEP7QWidget6QFlagsIN2Qt10WindowTypeEE@Base 0.16.0
 _ZN2Fm19EditBookmarksDialogC2ESt10shared_ptrINS_9BookmarksEEP7QWidget6QFlagsIN2Qt10WindowTypeEE@Base 0.16.0
 _ZN2Fm19EditBookmarksDialogD0Ev@Base 0.16.0
 _ZN2Fm19EditBookmarksDialogD1Ev@Base 0.16.0
 _ZN2Fm19EditBookmarksDialogD2Ev@Base 0.16.0
 _ZN2Fm19FileOperationDialog10setCurFileE7QString@Base 0.16.0
 _ZN2Fm19FileOperationDialog10setPercentEj@Base 0.16.0
 _ZN2Fm19FileOperationDialog11qt_metacallEN11QMetaObject4CallEiPPv@Base 0.16.0
 _ZN2Fm19FileOperationDialog11qt_metacastEPKc@Base 0.16.0
 _ZN2Fm19FileOperationDialog11setDestPathERKNS_8FilePathE@Base 0.16.0
 _ZN2Fm19FileOperationDialog11setPreparedEv@Base 0.16.0
 _ZN2Fm19FileOperationDialog14setSourceFilesERKSt6vectorINS_8FilePathESaIS2_EE@Base 0.16.0
 _ZN2Fm19FileOperationDialog16setRemainingTimeEj@Base 0.16.0
 _ZN2Fm19FileOperationDialog16staticMetaObjectE@Base 0.16.0
 (arch=!armel !armhf !hppa !i386 !mipsel !powerpc !sh4)_ZN2Fm19FileOperationDialog17setFilesProcessedEmm@Base 1.1.0
 (arch=armel armhf hppa i386 mipsel powerpc sh4)_ZN2Fm19FileOperationDialog17setFilesProcessedEyy@Base 1.1.0
 (arch=!armel !armhf !hppa !i386 !mipsel !powerpc !sh4)_ZN2Fm19FileOperationDialog18setDataTransferredEmm@Base 1.1.0
 (arch=armel armhf hppa i386 mipsel powerpc sh4)_ZN2Fm19FileOperationDialog18setDataTransferredEyy@Base 1.1.0
 _ZN2Fm19FileOperationDialog3askE7QStringPKPc@Base 0.16.0
 _ZN2Fm19FileOperationDialog5errorEP7_GErrorNS_3Job13ErrorSeverityE@Base 0.16.0
 _ZN2Fm19FileOperationDialog6rejectEv@Base 0.16.0
 _ZN2Fm19FileOperationDialog9askRenameERKNS_8FileInfoES3_RNS_8FilePathE@Base 0.16.0
 _ZN2Fm19FileOperationDialogC1EPNS_13FileOperationE@Base 0.16.0
 _ZN2Fm19FileOperationDialogC2EPNS_13FileOperationE@Base 0.16.0
 _ZN2Fm19FileOperationDialogD0Ev@Base 0.16.0
 _ZN2Fm19FileOperationDialogD1Ev@Base 0.16.0
 _ZN2Fm19FileOperationDialogD2Ev@Base 0.16.0
 _ZN2Fm19cutFilesToClipboardERKSt6vectorINS_8FilePathESaIS1_EE@Base 0.16.0
 _ZN2Fm19pathListFromUriListEPKc@Base 0.16.0
 _ZN2Fm20PlacesModelMountItem6updateEv@Base 0.16.0
 _ZN2Fm20PlacesModelMountItemC1EP7_GMount@Base 0.16.0
 _ZN2Fm20PlacesModelMountItemC2EP7_GMount@Base 0.16.0
 _ZN2Fm20PlacesModelMountItemD0Ev@Base 1.1.0
 _ZN2Fm20PlacesModelMountItemD1Ev@Base 1.1.0
 _ZN2Fm20PlacesModelMountItemD2Ev@Base 1.1.0
 _ZN2Fm20copyFilesToClipboardERKSt6vectorINS_8FilePathESaIS1_EE@Base 0.16.0
 _ZN2Fm20isUriSchemeSupportedEPKc@Base 0.16.0
 _ZN2Fm20setDefaultAppForTypeENS_10GObjectPtrI9_GAppInfoEESt10shared_ptrIKNS_8MimeTypeEE@Base 0.16.0
 _ZN2Fm21PlacesModelVolumeItem6updateEv@Base 0.16.0
 _ZN2Fm21PlacesModelVolumeItem9isMountedEv@Base 0.16.0
 _ZN2Fm21PlacesModelVolumeItemC1EP8_GVolume@Base 0.16.0
 _ZN2Fm21PlacesModelVolumeItemC2EP8_GVolume@Base 0.16.0
 _ZN2Fm21PlacesModelVolumeItemD0Ev@Base 1.1.0
 _ZN2Fm21PlacesModelVolumeItemD1Ev@Base 1.1.0
 _ZN2Fm21PlacesModelVolumeItemD2Ev@Base 1.1.0
 _ZN2Fm23PlacesModelBookmarkItemC1ESt10shared_ptrIKNS_12BookmarkItemEE@Base 0.16.0
 _ZN2Fm23PlacesModelBookmarkItemC2ESt10shared_ptrIKNS_12BookmarkItemEE@Base 0.16.0
 _ZN2Fm23pasteFilesFromClipboardERKNS_8FilePathEP7QWidget@Base 0.16.0
 _ZN2Fm3Job11qt_metacallEN11QMetaObject4CallEiPPv@Base 0.16.0
 _ZN2Fm3Job11qt_metacastEPKc@Base 0.16.0
 _ZN2Fm3Job16staticMetaObjectE@Base 0.16.0
 _ZN2Fm3Job3runEv@Base 0.16.0
 _ZN2Fm3Job5errorERKNS_9GErrorPtrENS0_13ErrorSeverityERNS0_11ErrorActionE@Base 0.16.0
 _ZN2Fm3Job6cancelEv@Base 0.16.0
 _ZN2Fm3Job8finishedEv@Base 0.16.0
 _ZN2Fm3Job8runAsyncEN7QThread8PriorityE@Base 0.16.0
 _ZN2Fm3Job9cancelledEv@Base 0.16.0
 _ZN2Fm3Job9emitErrorERKNS_9GErrorPtrENS0_13ErrorSeverityE@Base 0.16.0
 _ZN2Fm3JobC1Ev@Base 0.16.0
 _ZN2Fm3JobC2Ev@Base 0.16.0
 _ZN2Fm3JobD0Ev@Base 0.16.0
 _ZN2Fm3JobD1Ev@Base 0.16.0
 _ZN2Fm3JobD2Ev@Base 0.16.0
 _ZN2Fm6Folder10filesAddedERNS_12FileInfoListE@Base 0.16.0
 _ZN2Fm6Folder10findByPathERKNS_8FilePathE@Base 0.16.0
 _ZN2Fm6Folder11qt_metacallEN11QMetaObject4CallEiPPv@Base 0.16.0
 _ZN2Fm6Folder11qt_metacastEPKc@Base 0.16.0
 _ZN2Fm6Folder11queueReloadEv@Base 0.16.0
 _ZN2Fm6Folder11queueUpdateEv@Base 0.16.0
 _ZN2Fm6Folder12filesChangedERSt6vectorISt4pairISt10shared_ptrIKNS_8FileInfoEES6_ESaIS7_EE@Base 0.16.0
 _ZN2Fm6Folder12filesRemovedERNS_12FileInfoListE@Base 0.16.0
 _ZN2Fm6Folder12onDirChangedE17GFileMonitorEvent@Base 0.16.0
 _ZN2Fm6Folder12onIdleReloadEv@Base 0.16.0
 _ZN2Fm6Folder12onMountAddedERKNS_5MountE@Base 0.16.0
 _ZN2Fm6Folder12reallyReloadEv@Base 1.1.0
 _ZN2Fm6Folder12startLoadingEv@Base 0.16.0
 _ZN2Fm6Folder13finishLoadingEv@Base 0.16.0
 _ZN2Fm6Folder13makeDirectoryEPKcPP7_GError@Base 0.16.0
 _ZN2Fm6Folder14contentChangedEv@Base 0.16.0
 _ZN2Fm6Folder14eventFileAddedERKNS_8FilePathE@Base 0.16.0
 _ZN2Fm6Folder14onMountRemovedERKNS_5MountE@Base 0.16.0
 _ZN2Fm6Folder16eventFileChangedERKNS_8FilePathE@Base 0.16.0
 _ZN2Fm6Folder16eventFileDeletedERKNS_8FilePathE@Base 0.16.0
 _ZN2Fm6Folder16staticMetaObjectE@Base 0.16.0
 _ZN2Fm6Folder17fileSystemChangedEv@Base 0.16.0
 _ZN2Fm6Folder17onDirListFinishedEv@Base 0.16.0
 _ZN2Fm6Folder18onFileChangeEventsEP13_GFileMonitorP6_GFileS4_17GFileMonitorEvent@Base 0.16.0
 _ZN2Fm6Folder18onFileInfoFinishedEv@Base 0.16.0
 _ZN2Fm6Folder19queryFilesystemInfoEv@Base 0.16.0
 _ZN2Fm6Folder21processPendingChangesEv@Base 0.16.0
 _ZN2Fm6Folder24onFileSystemInfoFinishedEv@Base 0.16.0
 _ZN2Fm6Folder5errorERKNS_9GErrorPtrENS_3Job13ErrorSeverityERNS4_11ErrorActionE@Base 0.16.0
 _ZN2Fm6Folder6cache_E@Base 0.16.0
 _ZN2Fm6Folder6mutex_E@Base 0.16.0
 _ZN2Fm6Folder6reloadEv@Base 0.16.0
 _ZN2Fm6Folder7changedEv@Base 0.16.0
 _ZN2Fm6Folder7removedEv@Base 0.16.0
 _ZN2Fm6Folder7unmountEv@Base 0.16.0
 _ZN2Fm6Folder8fromPathERKNS_8FilePathE@Base 0.16.0
 _ZN2Fm6FolderC1ERKNS_8FilePathE@Base 0.16.0
 _ZN2Fm6FolderC1Ev@Base 0.16.0
 _ZN2Fm6FolderC2ERKNS_8FilePathE@Base 0.16.0
 _ZN2Fm6FolderC2Ev@Base 0.16.0
 _ZN2Fm6FolderD0Ev@Base 0.16.0
 _ZN2Fm6FolderD1Ev@Base 0.16.0
 _ZN2Fm6FolderD2Ev@Base 0.16.0
 _ZN2Fm7LibFmQt10translatorEv@Base 0.16.0
 _ZN2Fm7LibFmQtC1Ev@Base 0.16.0
 _ZN2Fm7LibFmQtC2Ev@Base 0.16.0
 _ZN2Fm7LibFmQtD1Ev@Base 0.16.0
 _ZN2Fm7LibFmQtD2Ev@Base 0.16.0
 _ZN2Fm7PathBar10openEditorEv@Base 0.16.0
 _ZN2Fm7PathBar10wheelEventEP11QWheelEvent@Base 0.16.0
 _ZN2Fm7PathBar11closeEditorEv@Base 0.16.0
 _ZN2Fm7PathBar11qt_metacallEN11QMetaObject4CallEiPPv@Base 0.16.0
 _ZN2Fm7PathBar11qt_metacastEPKc@Base 0.16.0
 _ZN2Fm7PathBar11resizeEventEP12QResizeEvent@Base 0.16.0
 _ZN2Fm7PathBar13pathForButtonEPNS_10PathButtonE@Base 0.16.0
 _ZN2Fm7PathBar15editingFinishedEv@Base 0.16.0
 _ZN2Fm7PathBar15mousePressEventEP11QMouseEvent@Base 0.16.0
 _ZN2Fm7PathBar15onButtonToggledEb@Base 0.16.0
 _ZN2Fm7PathBar15onReturnPressedEv@Base 0.16.0
 _ZN2Fm7PathBar16contextMenuEventEP17QContextMenuEvent@Base 0.16.0
 _ZN2Fm7PathBar16middleClickChdirERKNS_8FilePathE@Base 0.16.0
 _ZN2Fm7PathBar16staticMetaObjectE@Base 0.16.0
 _ZN2Fm7PathBar20ensureToggledVisibleEv@Base 0.16.0
 _ZN2Fm7PathBar20setArrowEnabledStateEi@Base 0.16.0
 _ZN2Fm7PathBar21onScrollButtonClickedEv@Base 0.16.0
 _ZN2Fm7PathBar25setScrollButtonVisibilityEv@Base 0.16.0
 _ZN2Fm7PathBar28updateScrollButtonVisibilityEv@Base 0.16.0
 _ZN2Fm7PathBar5chdirERKNS_8FilePathE@Base 0.16.0
 _ZN2Fm7PathBar7setPathENS_8FilePathE@Base 0.16.0
 _ZN2Fm7PathBar8copyPathEv@Base 0.16.0
 _ZN2Fm7PathBarC1EP7QWidget@Base 0.16.0
 _ZN2Fm7PathBarC2EP7QWidget@Base 0.16.0
 _ZN2Fm8Archiver12allArchiversEv@Base 0.16.0
 _ZN2Fm8Archiver13allArchivers_E@Base 0.16.0
 _ZN2Fm8Archiver13createArchiveEP18_GAppLaunchContextRKSt6vectorINS_8FilePathESaIS4_EE@Base 0.16.0
 _ZN2Fm8Archiver13launchProgramEP18_GAppLaunchContextPKcRKSt6vectorINS_8FilePathESaIS6_EERKS6_@Base 0.16.0
 _ZN2Fm8Archiver15defaultArchiverEv@Base 0.16.0
 _ZN2Fm8Archiver15extractArchivesEP18_GAppLaunchContextRKSt6vectorINS_8FilePathESaIS4_EE@Base 0.16.0
 _ZN2Fm8Archiver16defaultArchiver_E@Base 0.16.0
 _ZN2Fm8Archiver17extractArchivesToEP18_GAppLaunchContextRKSt6vectorINS_8FilePathESaIS4_EERKS4_@Base 0.16.0
 _ZN2Fm8Archiver18setDefaultArchiverEPS0_@Base 0.16.0
 _ZN2Fm8Archiver19isMimeTypeSupportedEPKc@Base 0.16.0
 _ZN2Fm8Archiver24setDefaultArchiverByNameEPKc@Base 0.16.0
 _ZN2Fm8ArchiverC1Ev@Base 0.16.0
 _ZN2Fm8ArchiverC2Ev@Base 0.16.0
 _ZN2Fm8FileInfo16setFromGFileInfoERKNS_10GObjectPtrI10_GFileInfoEERKNS_8FilePathES8_@Base 0.16.0
 _ZN2Fm8FileInfoC1ERKNS_10GObjectPtrI10_GFileInfoEERKNS_8FilePathES8_@Base 0.16.0
 _ZN2Fm8FileInfoC1Ev@Base 0.16.0
 _ZN2Fm8FileInfoC2ERKNS_10GObjectPtrI10_GFileInfoEERKNS_8FilePathES8_@Base 0.16.0
 _ZN2Fm8FileInfoC2Ev@Base 0.16.0
 _ZN2Fm8FileInfoD0Ev@Base 0.16.0
 _ZN2Fm8FileInfoD1Ev@Base 0.16.0
 _ZN2Fm8FileInfoD2Ev@Base 0.16.0
 _ZN2Fm8FileMenu10onCompressEv@Base 0.16.0
 _ZN2Fm8FileMenu11qt_metacallEN11QMetaObject4CallEiPPv@Base 0.16.0
 _ZN2Fm8FileMenu11qt_metacastEPKc@Base 0.16.0
 _ZN2Fm8FileMenu11setUseTrashEb@Base 0.16.0
 _ZN2Fm8FileMenu13onExtractHereEv@Base 0.16.0
 _ZN2Fm8FileMenu14addTrustActionEv@Base 0.16.0
 _ZN2Fm8FileMenu14onCutTriggeredEv@Base 0.16.0
 _ZN2Fm8FileMenu14onTrustToggledEb@Base 0.16.0
 _ZN2Fm8FileMenu15onCopyTriggeredEv@Base 0.16.0
 _ZN2Fm8FileMenu15onOpenTriggeredEv@Base 0.16.0
 _ZN2Fm8FileMenu16onPasteTriggeredEv@Base 0.16.0
 _ZN2Fm8FileMenu16openFilesWithAppEP9_GAppInfo@Base 0.16.0
 _ZN2Fm8FileMenu16staticMetaObjectE@Base 0.16.0
 _ZN2Fm8FileMenu17onDeleteTriggeredEv@Base 0.16.0
 _ZN2Fm8FileMenu17onRenameTriggeredEv@Base 0.16.0
 _ZN2Fm8FileMenu18onUnTrashTriggeredEv@Base 0.16.0
 _ZN2Fm8FileMenu19addCustomActionItemEP5QMenuSt10shared_ptrIKNS_14FileActionItemEE@Base 0.16.0
 _ZN2Fm8FileMenu19onOpenWithTriggeredEv@Base 0.16.0
 _ZN2Fm8FileMenu22onApplicationTriggeredEv@Base 0.16.0
 _ZN2Fm8FileMenu23onCustomActionTrigerredEv@Base 0.16.0
 _ZN2Fm8FileMenu25onFilePropertiesTriggeredEv@Base 0.16.0
 _ZN2Fm8FileMenu9onExtractEv@Base 0.16.0
 _ZN2Fm8FileMenuC1ENS_12FileInfoListESt10shared_ptrIKNS_8FileInfoEENS_8FilePathEbRK7QStringP7QWidget@Base 0.16.0
 _ZN2Fm8FileMenuC2ENS_12FileInfoListESt10shared_ptrIKNS_8FileInfoEENS_8FilePathEbRK7QStringP7QWidget@Base 0.16.0
 _ZN2Fm8FileMenuD0Ev@Base 0.16.0
 _ZN2Fm8FileMenuD1Ev@Base 0.16.0
 _ZN2Fm8FileMenuD2Ev@Base 0.16.0
 _ZN2Fm8FilePath7homeDirEv@Base 0.16.0
 _ZN2Fm8FilePath8homeDir_E@Base 0.16.0
 _ZN2Fm8IconInfo12updateQIconsEv@Base 0.16.0
 _ZN2Fm8IconInfo15fallbackQicons_E@Base 0.16.0
 _ZN2Fm8IconInfo15qiconsFromNamesEPKPKc@Base 0.16.0
 _ZN2Fm8IconInfo6cache_E@Base 0.16.0
 _ZN2Fm8IconInfo6mutex_E@Base 0.16.0
 _ZN2Fm8IconInfo8fromNameEPKc@Base 0.16.0
 _ZN2Fm8IconInfo9fromGIconENS_10GObjectPtrI6_GIconEE@Base 0.16.0
 _ZN2Fm8IconInfoC1ENS_10GObjectPtrI6_GIconEE@Base 0.16.0
 _ZN2Fm8IconInfoC1EPKc@Base 0.16.0
 _ZN2Fm8IconInfoC2ENS_10GObjectPtrI6_GIconEE@Base 0.16.0
 _ZN2Fm8IconInfoC2EPKc@Base 0.16.0
 _ZN2Fm8IconInfoD1Ev@Base 0.16.0
 _ZN2Fm8IconInfoD2Ev@Base 0.16.0
 _ZN2Fm8MimeType13desktopEntry_E@Base 0.16.0
 _ZN2Fm8MimeType14inodeShortcut_E@Base 0.16.0
 _ZN2Fm8MimeType15inodeDirectory_E@Base 0.16.0
 _ZN2Fm8MimeType16inodeMountPoint_E@Base 0.16.0
 _ZN2Fm8MimeType17guessFromFileNameEPKc@Base 0.16.0
 _ZN2Fm8MimeType6cache_E@Base 0.16.0
 _ZN2Fm8MimeType6mutex_E@Base 0.16.0
 _ZN2Fm8MimeType8fromNameEPKc@Base 0.16.0
 _ZN2Fm8MimeTypeC1EPKc@Base 0.16.0
 _ZN2Fm8MimeTypeC2EPKc@Base 0.16.0
 _ZN2Fm8MimeTypeD1Ev@Base 0.16.0
 _ZN2Fm8MimeTypeD2Ev@Base 0.16.0
 _ZN2Fm8PathEdit11qt_metacallEN11QMetaObject4CallEiPPv@Base 0.16.0
 _ZN2Fm8PathEdit11qt_metacastEPKc@Base 0.16.0
 _ZN2Fm8PathEdit12focusInEventEP11QFocusEvent@Base 0.16.0
 _ZN2Fm8PathEdit12onTextEditedERK7QString@Base 0.16.0
 _ZN2Fm8PathEdit13focusOutEventEP11QFocusEvent@Base 0.16.0
 _ZN2Fm8PathEdit13freeCompleterEv@Base 0.16.0
 _ZN2Fm8PathEdit13onJobFinishedEv@Base 0.16.0
 _ZN2Fm8PathEdit13onTextChangedERK7QString@Base 0.16.0
 _ZN2Fm8PathEdit15reloadCompleterEb@Base 0.16.0
 _ZN2Fm8PathEdit16staticMetaObjectE@Base 0.16.0
 _ZN2Fm8PathEdit23selectNextCompletionRowEb@Base 0.16.0
 _ZN2Fm8PathEdit5eventEP6QEvent@Base 0.16.0
 _ZN2Fm8PathEditC1EP7QWidget@Base 0.16.0
 _ZN2Fm8PathEditC2EP7QWidget@Base 0.16.0
 _ZN2Fm8PathEditD0Ev@Base 0.16.0
 _ZN2Fm8PathEditD1Ev@Base 0.16.0
 _ZN2Fm8PathEditD2Ev@Base 0.16.0
 _ZN2Fm8SidePane10modeByNameEPKc@Base 0.16.0
 _ZN2Fm8SidePane10setHomeDirEPKc@Base 0.16.0
 _ZN2Fm8SidePane11initDirTreeEv@Base 0.16.0
 _ZN2Fm8SidePane11modeChangedENS0_4ModeE@Base 0.16.0
 _ZN2Fm8SidePane11qt_metacallEN11QMetaObject4CallEiPPv@Base 0.16.0
 _ZN2Fm8SidePane11qt_metacastEPKc@Base 0.16.0
 _ZN2Fm8SidePane11setIconSizeE5QSize@Base 0.16.0
 _ZN2Fm8SidePane13setShowHiddenEb@Base 0.16.0
 _ZN2Fm8SidePane14chdirRequestedEiRKNS_8FilePathE@Base 0.16.0
 _ZN2Fm8SidePane14hiddenPlaceSetERK7QStringb@Base 0.16.0
 _ZN2Fm8SidePane14setCurrentPathENS_8FilePathE@Base 0.16.0
 _ZN2Fm8SidePane15prepareFileMenuEPNS_8FileMenuE@Base 0.16.0
 _ZN2Fm8SidePane16staticMetaObjectE@Base 0.16.0
 _ZN2Fm8SidePane19restoreHiddenPlacesERK4QSetI7QStringE@Base 0.16.0
 _ZN2Fm8SidePane24createNewFolderRequestedERKNS_8FilePathE@Base 0.16.0
 _ZN2Fm8SidePane26onComboCurrentIndexChangedEi@Base 0.16.0
 _ZN2Fm8SidePane27openFolderInNewTabRequestedERKNS_8FilePathE@Base 0.16.0
 _ZN2Fm8SidePane29openFolderInTerminalRequestedERKNS_8FilePathE@Base 0.16.0
 _ZN2Fm8SidePane30openFolderInNewWindowRequestedERKNS_8FilePathE@Base 0.16.0
 _ZN2Fm8SidePane5eventEP6QEvent@Base 0.16.0
 _ZN2Fm8SidePane7setModeENS0_4ModeE@Base 0.16.0
 _ZN2Fm8SidePane8modeNameENS0_4ModeE@Base 0.16.0
 _ZN2Fm8SidePaneC1EP7QWidget@Base 0.16.0
 _ZN2Fm8SidePaneC2EP7QWidget@Base 0.16.0
 _ZN2Fm8SidePaneD0Ev@Base 0.16.0
 _ZN2Fm8SidePaneD1Ev@Base 0.16.0
 _ZN2Fm8SidePaneD2Ev@Base 0.16.0
 _ZN2Fm8TrashJob11qt_metacallEN11QMetaObject4CallEiPPv@Base 0.16.0
 _ZN2Fm8TrashJob11qt_metacastEPKc@Base 0.16.0
 _ZN2Fm8TrashJob16staticMetaObjectE@Base 0.16.0
 _ZN2Fm8TrashJob4execEv@Base 0.16.0
 _ZN2Fm8TrashJobC1ESt6vectorINS_8FilePathESaIS2_EE@Base 0.16.0
 _ZN2Fm8TrashJobC2ESt6vectorINS_8FilePathESaIS2_EE@Base 0.16.0
 _ZN2Fm9Bookmarks11qt_metacallEN11QMetaObject4CallEiPPv@Base 0.16.0
 _ZN2Fm9Bookmarks11qt_metacastEPKc@Base 0.16.0
 _ZN2Fm9Bookmarks13onFileChangedEP13_GFileMonitorP6_GFileS4_17GFileMonitorEvent@Base 0.16.0
 _ZN2Fm9Bookmarks14globalInstanceEv@Base 0.16.0
 _ZN2Fm9Bookmarks15globalInstance_E@Base 0.16.0
 _ZN2Fm9Bookmarks16staticMetaObjectE@Base 0.16.0
 _ZN2Fm9Bookmarks4loadEv@Base 0.16.0
 _ZN2Fm9Bookmarks4saveEv@Base 0.16.0
 _ZN2Fm9Bookmarks6insertERKNS_8FilePathERK7QStringi@Base 0.16.0
 _ZN2Fm9Bookmarks6removeERKSt10shared_ptrIKNS_12BookmarkItemEE@Base 0.16.0
 _ZN2Fm9Bookmarks6renameERKSt10shared_ptrIKNS_12BookmarkItemEE7QString@Base 0.16.0
 _ZN2Fm9Bookmarks7changedEv@Base 0.16.0
 _ZN2Fm9Bookmarks7reorderERKSt10shared_ptrIKNS_12BookmarkItemEEi@Base 0.16.0
 _ZN2Fm9Bookmarks9queueSaveEv@Base 0.16.0
 _ZN2Fm9BookmarksC1EP7QObject@Base 0.16.0
 _ZN2Fm9BookmarksC2EP7QObject@Base 0.16.0
 _ZN2Fm9BookmarksD0Ev@Base 0.16.0
 _ZN2Fm9BookmarksD1Ev@Base 0.16.0
 _ZN2Fm9BookmarksD2Ev@Base 0.16.0
 _ZN2Fm9DeleteJob10deleteFileERKNS_8FilePathENS_10GObjectPtrI10_GFileInfoEE@Base 0.16.0
 _ZN2Fm9DeleteJob11qt_metacallEN11QMetaObject4CallEiPPv@Base 0.16.0
 _ZN2Fm9DeleteJob11qt_metacastEPKc@Base 0.16.0
 _ZN2Fm9DeleteJob16deleteDirContentERKNS_8FilePathENS_10GObjectPtrI10_GFileInfoEE@Base 0.16.0
 _ZN2Fm9DeleteJob16staticMetaObjectE@Base 0.16.0
 _ZN2Fm9DeleteJob4execEv@Base 0.16.0
 _ZN2Fm9DeleteJobC1EOSt6vectorINS_8FilePathESaIS2_EE@Base 0.16.0
 _ZN2Fm9DeleteJobC1ERKSt6vectorINS_8FilePathESaIS2_EE@Base 0.16.0
 _ZN2Fm9DeleteJobC2EOSt6vectorINS_8FilePathESaIS2_EE@Base 0.16.0
 _ZN2Fm9DeleteJobC2ERKSt6vectorINS_8FilePathESaIS2_EE@Base 0.16.0
 _ZN2Fm9DeleteJobD0Ev@Base 0.16.0
 _ZN2Fm9DeleteJobD1Ev@Base 0.16.0
 _ZN2Fm9DeleteJobD2Ev@Base 0.16.0
 _ZN2Fm9Templates11itemChangedERKSt10shared_ptrIKNS_12TemplateItemEES6_@Base 0.16.0
 _ZN2Fm9Templates11itemRemovedERKSt10shared_ptrIKNS_12TemplateItemEE@Base 0.16.0
 _ZN2Fm9Templates11qt_metacallEN11QMetaObject4CallEiPPv@Base 0.16.0
 _ZN2Fm9Templates11qt_metacastEPKc@Base 0.16.0
 _ZN2Fm9Templates12onFilesAddedERNS_12FileInfoListE@Base 0.16.0
 _ZN2Fm9Templates14addTemplateDirEPKc@Base 0.16.0
 _ZN2Fm9Templates14globalInstanceEv@Base 0.16.0
 _ZN2Fm9Templates14onFilesChangedERSt6vectorISt4pairISt10shared_ptrIKNS_8FileInfoEES6_ESaIS7_EE@Base 0.16.0
 _ZN2Fm9Templates14onFilesRemovedERNS_12FileInfoListE@Base 0.16.0
 _ZN2Fm9Templates15globalInstance_E@Base 0.16.0
 _ZN2Fm9Templates16staticMetaObjectE@Base 0.16.0
 _ZN2Fm9Templates20onTemplateDirRemovedEv@Base 0.16.0
 _ZN2Fm9Templates9itemAddedERKSt10shared_ptrIKNS_12TemplateItemEE@Base 0.16.0
 _ZN2Fm9TemplatesC1Ev@Base 0.16.0
 _ZN2Fm9TemplatesC2Ev@Base 0.16.0
 _ZN2Fm9gidToNameEj@Base 0.16.0
 _ZN2Fm9uidToNameEj@Base 0.16.0
 _ZN2Fm9uriExistsEPKc@Base 0.16.0
 _ZNK2Fm10DirListJob10metaObjectEv@Base 0.16.0
 _ZNK2Fm10FileDialog10metaObjectEv@Base 0.16.0
 _ZNK2Fm10FileDialog10parseNamesEv@Base 0.16.0
 _ZNK2Fm10FileDialog10showHiddenEv@Base 0.16.0
 _ZNK2Fm10FileDialog10sortColumnEv@Base 0.16.0
 _ZNK2Fm10FileDialog11bigIconSizeEv@Base 0.16.0
 _ZNK2Fm10FileDialog11splitterPosEv@Base 0.16.0
 _ZNK2Fm10FileDialog13smallIconSizeEv@Base 0.16.0
 _ZNK2Fm10FileDialog14showThumbnailsEv@Base 0.16.0
 _ZNK2Fm10FileDialog14sortHiddenLastEv@Base 0.16.0
 _ZNK2Fm10FileDialog15sortFolderFirstEv@Base 0.16.0
 _ZNK2Fm10FileDialog16FileDialogFilter16filterAcceptsRowEPKNS_16ProxyFolderModelERKSt10shared_ptrIKNS_8FileInfoEE@Base 0.16.0
 _ZNK2Fm10FileDialog16firstSelectedDirEv@Base 0.16.0
 _ZNK2Fm10FileDialog16getHiddenColumnsEv@Base 1.1.0
 _ZNK2Fm10FileDialog17sortCaseSensitiveEv@Base 0.16.0
 _ZNK2Fm10FileDialog17thumbnailIconSizeEv@Base 0.16.0
 _ZNK2Fm10FileDialog22selectedMimeTypeFilterEv@Base 0.16.0
 _ZNK2Fm10FileDialog6suffixEb@Base 0.16.0
 _ZNK2Fm10FileDialog9directoryEv@Base 0.16.0
 _ZNK2Fm10FileDialog9labelTextEN11QFileDialog11DialogLabelE@Base 0.16.0
 _ZNK2Fm10FileDialog9sortOrderEv@Base 0.16.0
 _ZNK2Fm10FolderMenu10metaObjectEv@Base 0.16.0
 _ZNK2Fm10FolderView10metaObjectEv@Base 0.16.0
 _ZNK2Fm10FolderView12hasSelectionEv@Base 0.16.0
 _ZNK2Fm10FolderView12selectedRowsEi@Base 0.16.0
 _ZNK2Fm10FolderView13selectedFilesEv@Base 0.16.0
 _ZNK2Fm10FolderView14selectionModelEv@Base 0.16.0
 _ZNK2Fm10FolderView15selectedIndexesEv@Base 0.16.0
 _ZNK2Fm10FolderView17selectedFilePathsEv@Base 0.16.0
 _ZNK2Fm10FolderView19indexFromFolderPathERKNS_8FilePathE@Base 0.16.0
 _ZNK2Fm10FolderView5modelEv@Base 0.16.0
 _ZNK2Fm10FolderView8iconSizeENS0_8ViewModeE@Base 0.16.0
 _ZNK2Fm10FolderView8viewModeEv@Base 0.16.0
 _ZNK2Fm10FolderView9childViewEv@Base 0.16.0
 _ZNK2Fm10FontButton10metaObjectEv@Base 0.16.0
 _ZNK2Fm10PlacesView10metaObjectEv@Base 0.16.0
 _ZNK2Fm11AppMenuView10metaObjectEv@Base 0.16.0
 _ZNK2Fm11AppMenuView11selectedAppEv@Base 0.16.0
 _ZNK2Fm11AppMenuView12selectedItemEv@Base 0.16.0
 _ZNK2Fm11AppMenuView13isAppSelectedEv@Base 0.16.0
 _ZNK2Fm11AppMenuView20selectedAppDesktopIdEv@Base 0.16.0
 _ZNK2Fm11AppMenuView22selectedAppDesktopPathEv@Base 0.16.0
 _ZNK2Fm11AppMenuView26selectedAppDesktopFilePathEv@Base 0.16.0
 _ZNK2Fm11ColorButton10metaObjectEv@Base 0.16.0
 _ZNK2Fm11DirTreeView10metaObjectEv@Base 0.16.0
 _ZNK2Fm11FileInfoJob10metaObjectEv@Base 0.16.0
 _ZNK2Fm11FileMonitor10metaObjectEv@Base 0.16.0
 _ZNK2Fm11FolderModel10headerDataEiN2Qt11OrientationEi@Base 0.16.0
 _ZNK2Fm11FolderModel10metaObjectEv@Base 0.16.0
 _ZNK2Fm11FolderModel11columnCountERK11QModelIndex@Base 0.16.0
 _ZNK2Fm11FolderModel11makeTooltipEPNS_15FolderModelItemE@Base 0.16.0
 _ZNK2Fm11FolderModel13itemFromIndexERK11QModelIndex@Base 0.16.0
 _ZNK2Fm11FolderModel16fileInfoFromPathERKNS_8FilePathE@Base 0.16.0
 _ZNK2Fm11FolderModel17fileInfoFromIndexERK11QModelIndex@Base 0.16.0
 _ZNK2Fm11FolderModel20supportedDropActionsEv@Base 0.16.0
 _ZNK2Fm11FolderModel4dataERK11QModelIndexi@Base 0.16.0
 _ZNK2Fm11FolderModel5flagsERK11QModelIndex@Base 0.16.0
 _ZNK2Fm11FolderModel5indexEiiRK11QModelIndex@Base 0.16.0
 _ZNK2Fm11FolderModel6parentERK11QModelIndex@Base 0.16.0
 _ZNK2Fm11FolderModel8mimeDataERK5QListI11QModelIndexE@Base 0.16.0
 _ZNK2Fm11FolderModel8rowCountERK11QModelIndex@Base 0.16.0
 _ZNK2Fm11FolderModel9mimeTypesEv@Base 0.16.0
 _ZNK2Fm11PlacesModel10metaObjectEv@Base 0.16.0
 _ZNK2Fm11PlacesModel15canDropMimeDataEPK9QMimeDataN2Qt10DropActionEiiRK11QModelIndex@Base 0.16.0
 _ZNK2Fm11PlacesModel20supportedDropActionsEv@Base 0.16.0
 _ZNK2Fm11PlacesModel4dataERK11QModelIndexi@Base 0.16.0
 _ZNK2Fm11PlacesModel5flagsERK11QModelIndex@Base 0.16.0
 _ZNK2Fm11PlacesModel8mimeDataERK5QListI11QModelIndexE@Base 0.16.0
 _ZNK2Fm11PlacesModel9mimeTypesEv@Base 0.16.0
 _ZNK2Fm11Thumbnailer13commandForUriEPKcS2_j@Base 0.16.0
 _ZNK2Fm11Thumbnailer3runEPKcS2_i@Base 0.16.0
 _ZNK2Fm12DirTreeModel10metaObjectEv@Base 0.16.0
 _ZNK2Fm12DirTreeModel11columnCountERK11QModelIndex@Base 0.16.0
 _ZNK2Fm12DirTreeModel11hasChildrenERK11QModelIndex@Base 0.16.0
 _ZNK2Fm12DirTreeModel12itemFromPathERKNS_8FilePathE@Base 0.16.0
 _ZNK2Fm12DirTreeModel13indexFromItemEPNS_16DirTreeModelItemE@Base 0.16.0
 _ZNK2Fm12DirTreeModel13indexFromPathERKNS_8FilePathE@Base 0.16.0
 _ZNK2Fm12DirTreeModel13itemFromIndexERK11QModelIndex@Base 0.16.0
 _ZNK2Fm12DirTreeModel15canDropMimeDataEPK9QMimeDataN2Qt10DropActionEiiRK11QModelIndex@Base 0.16.0
 _ZNK2Fm12DirTreeModel4dataERK11QModelIndexi@Base 0.16.0
 _ZNK2Fm12DirTreeModel5flagsERK11QModelIndex@Base 0.16.0
 _ZNK2Fm12DirTreeModel5indexEiiRK11QModelIndex@Base 0.16.0
 _ZNK2Fm12DirTreeModel6parentERK11QModelIndex@Base 0.16.0
 _ZNK2Fm12DirTreeModel8rowCountERK11QModelIndex@Base 0.16.0
 _ZNK2Fm12FileInfoList10isSameTypeEv@Base 0.16.0
 _ZNK2Fm12FileInfoList16isSameFilesystemEv@Base 0.16.0
 _ZNK2Fm12FileLauncher13launchedFilesERKNS_12FileInfoListE@Base 1.1.0
 _ZNK2Fm12FileLauncher13launchedPathsERKSt6vectorINS_8FilePathESaIS2_EE@Base 1.1.0
 _ZNK2Fm12FolderConfig8isOpenedEv@Base 0.16.0
 _ZNK2Fm12RenameDialog10metaObjectEv@Base 0.16.0
 _ZNK2Fm12TemplateItem8filePathEv@Base 0.16.0
 _ZNK2Fm12ThumbnailJob10metaObjectEv@Base 0.16.0
 _ZNK2Fm12ThumbnailJob19isThumbnailOutdatedERKSt10shared_ptrIKNS_8FileInfoEERK6QImage@Base 0.16.0
 _ZNK2Fm12ThumbnailJob20isSupportedImageTypeERKSt10shared_ptrIKNS_8MimeTypeEE@Base 0.16.0
 _ZNK2Fm12TotalSizeJob10metaObjectEv@Base 0.16.0
 _ZNK2Fm13BrowseHistory10canForwardEv@Base 0.16.0
 _ZNK2Fm13BrowseHistory11canBackwardEv@Base 0.16.0
 _ZNK2Fm13CreateNewMenu10metaObjectEv@Base 0.16.0
 _ZNK2Fm13FileOperation10metaObjectEv@Base 0.16.0
 _ZNK2Fm13UserInfoCache10metaObjectEv@Base 0.16.0
 _ZNK2Fm13VolumeManager10metaObjectEv@Base 0.16.0
 _ZNK2Fm14MountOperation10metaObjectEv@Base 0.16.0
 _ZNK2Fm15FilePropsDialog10metaObjectEv@Base 0.16.0
 _ZNK2Fm15FileTransferJob10metaObjectEv@Base 0.16.0
 _ZNK2Fm15FolderModelItem10ownerGroupEv@Base 0.16.0
 _ZNK2Fm15FolderModelItem11displaySizeEv@Base 0.16.0
 _ZNK2Fm15FolderModelItem12displayDtimeEv@Base 0.16.0
 _ZNK2Fm15FolderModelItem12displayMtimeEv@Base 0.16.0
 _ZNK2Fm15FolderModelItem13displayCrtimeEv@Base 0.17.1
 _ZNK2Fm15FolderModelItem9ownerNameEv@Base 0.16.0
 _ZNK2Fm15PlacesModelItem4dataEi@Base 0.16.0
 _ZNK2Fm16AppChooserDialog10metaObjectEv@Base 0.16.0
 _ZNK2Fm16AppChooserDialog12isSetDefaultEv@Base 0.16.0
 _ZNK2Fm16DirTreeModelItem13childFromPathENS_8FilePathEb@Base 0.16.0
 _ZNK2Fm16FileDialogHelper10metaObjectEv@Base 0.16.0
 _ZNK2Fm16FileDialogHelper13selectedFilesEv@Base 0.16.0
 _ZNK2Fm16FileDialogHelper14isSupportedUrlERK4QUrl@Base 0.16.0
 _ZNK2Fm16FileDialogHelper18selectedNameFilterEv@Base 0.16.0
 _ZNK2Fm16FileDialogHelper22selectedMimeTypeFilterEv@Base 0.16.0
 _ZNK2Fm16FileDialogHelper25defaultNameFilterDisablesEv@Base 0.16.0
 _ZNK2Fm16FileDialogHelper9directoryEv@Base 0.16.0
 _ZNK2Fm16FileOperationJob10metaObjectEv@Base 0.16.0
 _ZNK2Fm16FileOperationJob11currentFileEv@Base 0.16.0
 (arch=!armel !armhf !hppa !i386 !mipsel !powerpc !sh4)_ZNK2Fm16FileOperationJob11totalAmountERmS1_@Base 1.1.0
 (arch=armel armhf hppa i386 mipsel powerpc sh4)_ZNK2Fm16FileOperationJob11totalAmountERyS1_@Base 1.1.0
 (arch=!armel !armhf !hppa !i386 !mipsel !powerpc !sh4)_ZNK2Fm16FileOperationJob14finishedAmountERmS1_@Base 1.1.0
 (arch=armel armhf hppa i386 mipsel powerpc sh4)_ZNK2Fm16FileOperationJob14finishedAmountERyS1_@Base 1.1.0
 (arch=!armel !armhf !hppa !i386 !mipsel !powerpc !sh4)_ZNK2Fm16FileOperationJob19currentFileProgressERNS_8FilePathERmS3_@Base 1.1.0
 (arch=armel armhf hppa i386 mipsel powerpc sh4)_ZNK2Fm16FileOperationJob19currentFileProgressERNS_8FilePathERyS3_@Base 1.1.0
 _ZNK2Fm16FileOperationJob8progressEv@Base 0.16.0
 _ZNK2Fm16FileSearchDialog10nameRegexpEv@Base 0.16.0
 _ZNK2Fm16FileSearchDialog11namePatternEv@Base 1.1.0
 _ZNK2Fm16FileSearchDialog13contentRegexpEv@Base 0.16.0
 _ZNK2Fm16FileSearchDialog13searchhHiddenEv@Base 0.16.0
 _ZNK2Fm16FileSearchDialog14contentPatternEv@Base 1.1.0
 _ZNK2Fm16FileSearchDialog19nameCaseInsensitiveEv@Base 0.16.0
 _ZNK2Fm16FileSearchDialog22contentCaseInsensitiveEv@Base 0.16.0
 _ZNK2Fm16FileSearchDialog9recursiveEv@Base 0.16.0
 _ZNK2Fm16PlacesProxyModel10metaObjectEv@Base 0.16.0
 _ZNK2Fm16PlacesProxyModel16filterAcceptsRowEiRK11QModelIndex@Base 0.16.0
 _ZNK2Fm16ProxyFolderModel10metaObjectEv@Base 0.16.0
 _ZNK2Fm16ProxyFolderModel13indexFromPathERKNS_8FilePathE@Base 0.16.0
 _ZNK2Fm16ProxyFolderModel16fileInfoFromPathERKNS_8FilePathE@Base 0.16.0
 _ZNK2Fm16ProxyFolderModel16filterAcceptsRowEiRK11QModelIndex@Base 0.16.0
 _ZNK2Fm16ProxyFolderModel17fileInfoFromIndexERK11QModelIndex@Base 0.16.0
 _ZNK2Fm16ProxyFolderModel4dataERK11QModelIndexi@Base 0.16.0
 _ZNK2Fm16ProxyFolderModel8lessThanERK11QModelIndexS3_@Base 0.16.0
 _ZNK2Fm17CachedFolderModel10metaObjectEv@Base 0.16.0
 _ZNK2Fm17FileChangeAttrJob10metaObjectEv@Base 0.16.0
 _ZNK2Fm17FileSystemInfoJob10metaObjectEv@Base 0.16.0
 _ZNK2Fm18AppChooserComboBox10metaObjectEv@Base 0.16.0
 _ZNK2Fm18AppChooserComboBox11selectedAppEv@Base 0.16.0
 _ZNK2Fm18AppChooserComboBox9isChangedEv@Base 0.16.0
 _ZNK2Fm18FolderItemDelegate10metaObjectEv@Base 0.16.0
 _ZNK2Fm18FolderItemDelegate12createEditorEP7QWidgetRK20QStyleOptionViewItemRK11QModelIndex@Base 0.16.0
 _ZNK2Fm18FolderItemDelegate13setEditorDataEP7QWidgetRK11QModelIndex@Base 0.16.0
 _ZNK2Fm18FolderItemDelegate16iconViewTextSizeERK11QModelIndex@Base 0.16.0
 _ZNK2Fm18FolderItemDelegate20updateEditorGeometryEP7QWidgetRK20QStyleOptionViewItemRK11QModelIndex@Base 0.16.0
 _ZNK2Fm18FolderItemDelegate5paintEP8QPainterRK20QStyleOptionViewItemRK11QModelIndex@Base 0.16.0
 _ZNK2Fm18FolderItemDelegate8drawTextEP8QPainterR20QStyleOptionViewItemR6QRectF@Base 0.16.0
 _ZNK2Fm18FolderItemDelegate8sizeHintERK20QStyleOptionViewItemRK11QModelIndex@Base 0.16.0
 _ZNK2Fm19EditBookmarksDialog10metaObjectEv@Base 0.16.0
 _ZNK2Fm19FileOperationDialog10metaObjectEv@Base 0.16.0
 _ZNK2Fm3Job10metaObjectEv@Base 0.16.0
 _ZNK2Fm6Folder10fileByNameEPKc@Base 0.16.0
 _ZNK2Fm6Folder10metaObjectEv@Base 0.16.0
 _ZNK2Fm6Folder13isIncrementalEv@Base 0.16.0
 _ZNK2Fm6Folder14hasFileMonitorEv@Base 0.16.0
 (arch=!armel !armhf !hppa !i386 !mipsel !powerpc !sh4)_ZNK2Fm6Folder17getFilesystemInfoEPmS1_@Base 1.1.0
 (arch=armel armhf hppa i386 mipsel powerpc sh4)_ZNK2Fm6Folder17getFilesystemInfoEPyS1_@Base 1.1.0
 _ZNK2Fm6Folder4infoEv@Base 0.16.0
 _ZNK2Fm6Folder4pathEv@Base 0.16.0
 _ZNK2Fm6Folder5filesEv@Base 0.16.0
 _ZNK2Fm6Folder7isEmptyEv@Base 0.16.0
 _ZNK2Fm6Folder7isValidEv@Base 0.16.0
 _ZNK2Fm6Folder8isLoadedEv@Base 0.16.0
 _ZNK2Fm7PathBar10metaObjectEv@Base 0.16.0
 _ZNK2Fm8FileInfo11isTrustableEv@Base 0.16.0
 _ZNK2Fm8FileInfo12canThumbnailEv@Base 0.16.0
 _ZNK2Fm8FileInfo12setTrustableEb@Base 0.16.0
 _ZNK2Fm8FileInfo16isExecutableTypeEv@Base 0.16.0
 _ZNK2Fm8FileInfo9setEmblemERK7QStringb@Base 1.1.0
 _ZNK2Fm8FileMenu10metaObjectEv@Base 0.16.0
 _ZNK2Fm8IconInfo13internalQiconEv@Base 0.16.0
 _ZNK2Fm8IconInfo5qiconEv@Base 0.16.0
 _ZNK2Fm8IconInfo7emblemsEv@Base 0.16.0
 _ZNK2Fm8PathEdit10metaObjectEv@Base 0.16.0
 _ZNK2Fm8SidePane10metaObjectEv@Base 0.16.0
 _ZNK2Fm8TrashJob10metaObjectEv@Base 0.16.0
 _ZNK2Fm9Bookmarks10metaObjectEv@Base 0.16.0
 _ZNK2Fm9Bookmarks13bookmarksFileEv@Base 0.16.0
 _ZNK2Fm9DeleteJob10metaObjectEv@Base 0.16.0
 _ZNK2Fm9Templates10metaObjectEv@Base 0.16.0
 (optional=templinst|arch=armel armhf hppa i386 mipsel powerpc sh4)_ZNKSt10_HashtableINSt7__cxx1112basic_stringIcSt11char_traitsIcESaIcEEESt4pairIKS5_St10shared_ptrIKN2Fm8FileInfoEEESaISD_ENSt8__detail10_Select1stESt8equal_toIS5_ESt4hashIS5_ENSF_18_Mod_range_hashingENSF_20_Default_ranged_hashENSF_20_Prime_rehash_policyENSF_17_Hashtable_traitsILb1ELb0ELb1EEEE19_M_find_before_nodeEjRS7_j@Base 1.1.0
 (optional=templinst|arch=!armel !armhf !hppa !i386 !mipsel !powerpc !sh4)_ZNKSt10_HashtableINSt7__cxx1112basic_stringIcSt11char_traitsIcESaIcEEESt4pairIKS5_St10shared_ptrIKN2Fm8FileInfoEEESaISD_ENSt8__detail10_Select1stESt8equal_toIS5_ESt4hashIS5_ENSF_18_Mod_range_hashingENSF_20_Default_ranged_hashENSF_20_Prime_rehash_policyENSF_17_Hashtable_traitsILb1ELb0ELb1EEEE19_M_find_before_nodeEmRS7_m@Base 1.1.0
 (optional=templinst)_ZNSt10_HashtableINSt7__cxx1112basic_stringIcSt11char_traitsIcESaIcEEESt4pairIKS5_St10shared_ptrIKN2Fm8FileInfoEEESaISD_ENSt8__detail10_Select1stESt8equal_toIS5_ESt4hashIS5_ENSF_18_Mod_range_hashingENSF_20_Default_ranged_hashENSF_20_Prime_rehash_policyENSF_17_Hashtable_traitsILb1ELb0ELb1EEEE4findERS7_@Base 1.1.0
 (optional=templinst)_ZNSt10_HashtableINSt7__cxx1112basic_stringIcSt11char_traitsIcESaIcEEESt4pairIKS5_St10shared_ptrIKN2Fm8FileInfoEEESaISD_ENSt8__detail10_Select1stESt8equal_toIS5_ESt4hashIS5_ENSF_18_Mod_range_hashingENSF_20_Default_ranged_hashENSF_20_Prime_rehash_policyENSF_17_Hashtable_traitsILb1ELb0ELb1EEEE5clearEv@Base 1.1.0
 _ZNSt6vectorI18QRegularExpressionSaIS0_EE17_M_realloc_insertIJS0_EEEvN9__gnu_cxx17__normal_iteratorIPS0_S2_EEDpOT_@Base 0.16.0
 _ZNSt6vectorI6QImageSaIS0_EE17_M_realloc_insertIJS0_EEEvN9__gnu_cxx17__normal_iteratorIPS0_S2_EEDpOT_@Base 0.16.0
 _ZNSt6vectorIN2Fm17BrowseHistoryItemESaIS1_EE17_M_realloc_insertIJS1_EEEvN9__gnu_cxx17__normal_iteratorIPS1_S3_EEDpOT_@Base 0.16.0
 _ZNSt6vectorIN2Fm5MountESaIS1_EE17_M_realloc_insertIJS1_EEEvN9__gnu_cxx17__normal_iteratorIPS1_S3_EEDpOT_@Base 0.16.0
 _ZNSt6vectorIN2Fm6VolumeESaIS1_EE17_M_realloc_insertIJS1_EEEvN9__gnu_cxx17__normal_iteratorIPS1_S3_EEDpOT_@Base 0.16.0
 _ZNSt6vectorIN2Fm8FilePathESaIS1_EE12emplace_backIJS1_EEEvDpOT_@Base 0.16.0
 _ZNSt6vectorIN2Fm8FilePathESaIS1_EE17_M_realloc_insertIJRKS1_EEEvN9__gnu_cxx17__normal_iteratorIPS1_S3_EEDpOT_@Base 0.16.0
 _ZNSt6vectorIN2Fm8FilePathESaIS1_EE17_M_realloc_insertIJRS1_EEEvN9__gnu_cxx17__normal_iteratorIPS1_S3_EEDpOT_@Base 0.16.0
 _ZNSt6vectorIN2Fm8FilePathESaIS1_EE17_M_realloc_insertIJS1_EEEvN9__gnu_cxx17__normal_iteratorIPS1_S3_EEDpOT_@Base 0.16.0
 _ZNSt6vectorIPN2Fm12ThumbnailJobESaIS2_EE17_M_realloc_insertIJRKS2_EEEvN9__gnu_cxx17__normal_iteratorIPS2_S4_EEDpOT_@Base 0.16.0
 _ZNSt6vectorIPN2Fm16DirTreeModelItemESaIS2_EE17_M_realloc_insertIJS2_EEEvN9__gnu_cxx17__normal_iteratorIPS2_S4_EEDpOT_@Base 0.16.0
 _ZNSt6vectorIPN2Fm16DirTreeModelItemESaIS2_EE8_M_eraseEN9__gnu_cxx17__normal_iteratorIPS2_S4_EE@Base 1.1.0
 _ZNSt6vectorISt10shared_ptrIKN2Fm12BookmarkItemEESaIS4_EE14_M_insert_rvalEN9__gnu_cxx17__normal_iteratorIPKS4_S6_EEOS4_@Base 0.16.0
 _ZNSt6vectorISt10shared_ptrIKN2Fm12BookmarkItemEESaIS4_EE17_M_realloc_insertIJS4_EEEvN9__gnu_cxx17__normal_iteratorIPS4_S6_EEDpOT_@Base 0.16.0
 _ZNSt6vectorISt10shared_ptrIKN2Fm8FileInfoEESaIS4_EE12emplace_backIJRKS4_EEEvDpOT_@Base 0.16.0
 _ZNSt6vectorISt10shared_ptrIKN2Fm8FileInfoEESaIS4_EE17_M_realloc_insertIJRKS4_EEEvN9__gnu_cxx17__normal_iteratorIPS4_S6_EEDpOT_@Base 0.16.0
 _ZNSt6vectorISt10shared_ptrIKN2Fm8FileInfoEESaIS4_EE17_M_realloc_insertIJS4_EEEvN9__gnu_cxx17__normal_iteratorIPS4_S6_EEDpOT_@Base 0.16.0
 (optional=templinst|arch=riscv64)_ZNSt6vectorISt10shared_ptrIKN2Fm8MimeTypeEESaIS4_EE12emplace_backIJRKS4_EEEvDpOT_@Base 1.1.0
 _ZNSt6vectorISt10shared_ptrIKN2Fm8MimeTypeEESaIS4_EE17_M_realloc_insertIJRKS4_EEEvN9__gnu_cxx17__normal_iteratorIPS4_S6_EEDpOT_@Base 0.16.0
 _ZNSt6vectorISt10shared_ptrIN2Fm11ThumbnailerEESaIS3_EE17_M_realloc_insertIJS3_EEEvN9__gnu_cxx17__normal_iteratorIPS3_S5_EEDpOT_@Base 0.16.0
 _ZNSt6vectorISt10shared_ptrIN2Fm12TemplateItemEESaIS3_EE17_M_realloc_insertIJS3_EEEvN9__gnu_cxx17__normal_iteratorIPS3_S5_EEDpOT_@Base 0.16.0
 (arch=amd64 riscv64)_ZNSt6vectorISt10shared_ptrIN2Fm12TemplateItemEESaIS3_EE8_M_eraseEN9__gnu_cxx17__normal_iteratorIPS3_S5_EES9_@Base 1.1.0
 _ZNSt6vectorISt10shared_ptrIN2Fm6FolderEESaIS3_EE17_M_realloc_insertIJS3_EEEvN9__gnu_cxx17__normal_iteratorIPS3_S5_EEDpOT_@Base 0.16.0
 _ZNSt6vectorISt10unique_ptrIN2Fm8ArchiverESt14default_deleteIS2_EESaIS5_EE17_M_realloc_insertIJS5_EEEvN9__gnu_cxx17__normal_iteratorIPS5_S7_EEDpOT_@Base 0.17.1
 _ZNSt6vectorISt4pairISt10shared_ptrIKN2Fm8FileInfoEES5_ESaIS6_EE12emplace_backIJS6_EEEvDpOT_@Base 0.16.0
 _ZNSt6vectorISt4pairISt10shared_ptrIKN2Fm8FileInfoEES5_ESaIS6_EE17_M_realloc_insertIJS6_EEEvN9__gnu_cxx17__normal_iteratorIPS6_S8_EEDpOT_@Base 0.16.0
 (optional=templinst)_ZNSt8__detail9_Map_baseINSt7__cxx1112basic_stringIcSt11char_traitsIcESaIcEEESt4pairIKS6_St10shared_ptrIKN2Fm8FileInfoEEESaISE_ENS_10_Select1stESt8equal_toIS6_ESt4hashIS6_ENS_18_Mod_range_hashingENS_20_Default_ranged_hashENS_20_Prime_rehash_policyENS_17_Hashtable_traitsILb1ELb0ELb1EEELb1EEixEOS6_@Base 1.1.0
 _ZNSt8__detail9_Map_baseIjSt4pairIKjSt10shared_ptrIKN2Fm8UserInfoEEESaIS8_ENS_10_Select1stESt8equal_toIjESt4hashIjENS_18_Mod_range_hashingENS_20_Default_ranged_hashENS_20_Prime_rehash_policyENS_17_Hashtable_traitsILb0ELb0ELb1EEELb1EEixERS2_@Base 0.16.0
 _ZNSt8__detail9_Map_baseIjSt4pairIKjSt10shared_ptrIKN2Fm9GroupInfoEEESaIS8_ENS_10_Select1stESt8equal_toIjESt4hashIjENS_18_Mod_range_hashingENS_20_Default_ranged_hashENS_20_Prime_rehash_policyENS_17_Hashtable_traitsILb0ELb0ELb1EEELb1EEixERS2_@Base 0.16.0
 _ZTIN2Fm10DirListJobE@Base 0.16.0
 _ZTIN2Fm10FileDialog16FileDialogFilterE@Base 0.16.0
 _ZTIN2Fm10FileDialogE@Base 0.16.0
 _ZTIN2Fm10FolderMenuE@Base 0.16.0
 _ZTIN2Fm10FolderViewE@Base 0.16.0
 _ZTIN2Fm10FontButtonE@Base 0.16.0
 _ZTIN2Fm10PlacesViewE@Base 0.16.0
 _ZTIN2Fm10UntrashJobE@Base 0.16.0
 _ZTIN2Fm11AppMenuViewE@Base 0.16.0
 _ZTIN2Fm11ColorButtonE@Base 0.16.0
 _ZTIN2Fm11DirTreeViewE@Base 0.16.0
 _ZTIN2Fm11FileInfoJobE@Base 0.16.0
 _ZTIN2Fm11FileLinkJobE@Base 0.16.0
 _ZTIN2Fm11FileMonitorE@Base 0.16.0
 _ZTIN2Fm11FolderModelE@Base 0.16.0
 _ZTIN2Fm11PlacesModel10ItemActionE@Base 0.16.0
 _ZTIN2Fm11PlacesModelE@Base 0.16.0
 _ZTIN2Fm12DirTreeModelE@Base 0.16.0
 _ZTIN2Fm12FileLauncherE@Base 0.16.0
 _ZTIN2Fm12RenameDialogE@Base 0.16.0
 _ZTIN2Fm12ThumbnailJobE@Base 0.16.0
 _ZTIN2Fm12TotalSizeJobE@Base 0.16.0
 _ZTIN2Fm13BrowseHistoryE@Base 0.16.0
 _ZTIN2Fm13CreateNewMenuE@Base 0.16.0
 _ZTIN2Fm13FileOperationE@Base 0.16.0
 _ZTIN2Fm13UserInfoCacheE@Base 0.16.0
 _ZTIN2Fm13VolumeManager20GetGVolumeMonitorJobE@Base 0.16.0
 _ZTIN2Fm13VolumeManagerE@Base 0.16.0
 _ZTIN2Fm14BookmarkActionE@Base 0.16.0
 _ZTIN2Fm14MountOperationE@Base 0.16.0
 _ZTIN2Fm15FilePropsDialogE@Base 0.16.0
 _ZTIN2Fm15FileTransferJobE@Base 0.16.0
 _ZTIN2Fm15FolderModelItemE@Base 0.16.0
 _ZTIN2Fm15PlacesModelItemE@Base 0.16.0
 _ZTIN2Fm16AppChooserDialogE@Base 0.16.0
 _ZTIN2Fm16FileDialogHelperE@Base 0.16.0
 _ZTIN2Fm16FileOperationJobE@Base 0.16.0
 _ZTIN2Fm16FileSearchDialogE@Base 0.16.0
 _ZTIN2Fm16PlacesProxyModelE@Base 0.16.0
 _ZTIN2Fm16ProxyFolderModelE@Base 0.16.0
 _ZTIN2Fm17BasicFileLauncherE@Base 0.16.0
 _ZTIN2Fm17CachedFolderModelE@Base 0.16.0
 _ZTIN2Fm17FileChangeAttrJobE@Base 0.16.0
 _ZTIN2Fm17FileSystemInfoJobE@Base 0.16.0
 _ZTIN2Fm18AppChooserComboBoxE@Base 0.16.0
 _ZTIN2Fm18FolderItemDelegateE@Base 0.16.0
 _ZTIN2Fm19EditBookmarksDialogE@Base 0.16.0
 _ZTIN2Fm19FileOperationDialogE@Base 0.16.0
 _ZTIN2Fm20PlacesModelMountItemE@Base 0.16.0
 _ZTIN2Fm21PlacesModelVolumeItemE@Base 0.16.0
 _ZTIN2Fm22ProxyFolderModelFilterE@Base 0.16.0
 _ZTIN2Fm23PlacesModelBookmarkItemE@Base 0.16.0
 _ZTIN2Fm3JobE@Base 0.16.0
 _ZTIN2Fm6FolderE@Base 0.16.0
 _ZTIN2Fm7PathBarE@Base 0.16.0
 _ZTIN2Fm8FileInfoE@Base 0.16.0
 _ZTIN2Fm8FileMenuE@Base 0.16.0
 _ZTIN2Fm8PathEditE@Base 0.16.0
 _ZTIN2Fm8SidePaneE@Base 0.16.0
 _ZTIN2Fm8TrashJobE@Base 0.16.0
 _ZTIN2Fm9BookmarksE@Base 0.16.0
 _ZTIN2Fm9DeleteJobE@Base 0.16.0
 _ZTIN2Fm9TemplatesE@Base 0.16.0
 (arch=armel riscv64)_ZTIN9__gnu_cxx7__mutexE@Base 1.1.0
 (arch=armel riscv64)_ZTISt11_Mutex_baseILN9__gnu_cxx12_Lock_policyE1EE@Base 1.1.0
 (arch=!armel !riscv64)_ZTISt11_Mutex_baseILN9__gnu_cxx12_Lock_policyE2EE@Base 0.16.0
 (arch=armel riscv64)_ZTISt16_Sp_counted_baseILN9__gnu_cxx12_Lock_policyE1EE@Base 1.1.0
 (arch=!armel !riscv64)_ZTISt16_Sp_counted_baseILN9__gnu_cxx12_Lock_policyE2EE@Base 0.16.0
 (arch=armel armhf)_ZTISt19_Sp_make_shared_tag@Base 1.1.0
 (arch=armel riscv64)_ZTISt23_Sp_counted_ptr_inplaceIKN2Fm12BookmarkItemESaIvELN9__gnu_cxx12_Lock_policyE1EE@Base 1.1.0
 (arch=!armel !riscv64)_ZTISt23_Sp_counted_ptr_inplaceIKN2Fm12BookmarkItemESaIvELN9__gnu_cxx12_Lock_policyE2EE@Base 1.1.0
 (arch=armel riscv64)_ZTISt23_Sp_counted_ptr_inplaceIN2Fm11PlacesModelESaIvELN9__gnu_cxx12_Lock_policyE1EE@Base 1.1.0
 (arch=!armel !riscv64)_ZTISt23_Sp_counted_ptr_inplaceIN2Fm11PlacesModelESaIvELN9__gnu_cxx12_Lock_policyE2EE@Base 1.1.0
 (arch=armel riscv64)_ZTISt23_Sp_counted_ptr_inplaceIN2Fm11ThumbnailerESaIvELN9__gnu_cxx12_Lock_policyE1EE@Base 1.1.0
 (arch=!armel !riscv64)_ZTISt23_Sp_counted_ptr_inplaceIN2Fm11ThumbnailerESaIvELN9__gnu_cxx12_Lock_policyE2EE@Base 1.1.0
 (arch=armel riscv64)_ZTISt23_Sp_counted_ptr_inplaceIN2Fm12BookmarkItemESaIvELN9__gnu_cxx12_Lock_policyE1EE@Base 1.1.0
 (arch=!armel !riscv64)_ZTISt23_Sp_counted_ptr_inplaceIN2Fm12BookmarkItemESaIvELN9__gnu_cxx12_Lock_policyE2EE@Base 1.1.0
 (arch=armel riscv64)_ZTISt23_Sp_counted_ptr_inplaceIN2Fm12TemplateItemESaIvELN9__gnu_cxx12_Lock_policyE1EE@Base 1.1.0
 (arch=!armel !riscv64)_ZTISt23_Sp_counted_ptr_inplaceIN2Fm12TemplateItemESaIvELN9__gnu_cxx12_Lock_policyE2EE@Base 1.1.0
 (arch=armel riscv64)_ZTISt23_Sp_counted_ptr_inplaceIN2Fm13VolumeManagerESaIvELN9__gnu_cxx12_Lock_policyE1EE@Base 1.1.0
 (arch=!armel !riscv64)_ZTISt23_Sp_counted_ptr_inplaceIN2Fm13VolumeManagerESaIvELN9__gnu_cxx12_Lock_policyE2EE@Base 1.1.0
 (arch=armel riscv64)_ZTISt23_Sp_counted_ptr_inplaceIN2Fm16PlacesProxyModelESaIvELN9__gnu_cxx12_Lock_policyE1EE@Base 1.1.0
 (arch=!armel !riscv64)_ZTISt23_Sp_counted_ptr_inplaceIN2Fm16PlacesProxyModelESaIvELN9__gnu_cxx12_Lock_policyE2EE@Base 1.1.0
 (arch=armel riscv64)_ZTISt23_Sp_counted_ptr_inplaceIN2Fm6FolderESaIvELN9__gnu_cxx12_Lock_policyE1EE@Base 1.1.0
 (arch=!armel !riscv64)_ZTISt23_Sp_counted_ptr_inplaceIN2Fm6FolderESaIvELN9__gnu_cxx12_Lock_policyE2EE@Base 1.1.0
 (arch=armel riscv64)_ZTISt23_Sp_counted_ptr_inplaceIN2Fm8FileInfoESaIvELN9__gnu_cxx12_Lock_policyE1EE@Base 1.1.0
 (arch=!armel !riscv64)_ZTISt23_Sp_counted_ptr_inplaceIN2Fm8FileInfoESaIvELN9__gnu_cxx12_Lock_policyE2EE@Base 1.1.0
 (arch=armel riscv64)_ZTISt23_Sp_counted_ptr_inplaceIN2Fm8IconInfoESaIvELN9__gnu_cxx12_Lock_policyE1EE@Base 1.1.0
 (arch=!armel !riscv64)_ZTISt23_Sp_counted_ptr_inplaceIN2Fm8IconInfoESaIvELN9__gnu_cxx12_Lock_policyE2EE@Base 1.1.0
 (arch=armel riscv64)_ZTISt23_Sp_counted_ptr_inplaceIN2Fm8MimeTypeESaIvELN9__gnu_cxx12_Lock_policyE1EE@Base 1.1.0
 (arch=!armel !riscv64)_ZTISt23_Sp_counted_ptr_inplaceIN2Fm8MimeTypeESaIvELN9__gnu_cxx12_Lock_policyE2EE@Base 1.1.0
 (arch=armel riscv64)_ZTISt23_Sp_counted_ptr_inplaceIN2Fm8UserInfoESaIvELN9__gnu_cxx12_Lock_policyE1EE@Base 1.1.0
 (arch=!armel !riscv64)_ZTISt23_Sp_counted_ptr_inplaceIN2Fm8UserInfoESaIvELN9__gnu_cxx12_Lock_policyE2EE@Base 1.1.0
 (arch=armel riscv64)_ZTISt23_Sp_counted_ptr_inplaceIN2Fm9BookmarksESaIvELN9__gnu_cxx12_Lock_policyE1EE@Base 1.1.0
 (arch=!armel !riscv64)_ZTISt23_Sp_counted_ptr_inplaceIN2Fm9BookmarksESaIvELN9__gnu_cxx12_Lock_policyE2EE@Base 1.1.0
 (arch=armel riscv64)_ZTISt23_Sp_counted_ptr_inplaceIN2Fm9GroupInfoESaIvELN9__gnu_cxx12_Lock_policyE1EE@Base 1.1.0
 (arch=!armel !riscv64)_ZTISt23_Sp_counted_ptr_inplaceIN2Fm9GroupInfoESaIvELN9__gnu_cxx12_Lock_policyE2EE@Base 1.1.0
 (arch=armel riscv64)_ZTISt23_Sp_counted_ptr_inplaceIN2Fm9TemplatesESaIvELN9__gnu_cxx12_Lock_policyE1EE@Base 1.1.0
 (arch=!armel !riscv64)_ZTISt23_Sp_counted_ptr_inplaceIN2Fm9TemplatesESaIvELN9__gnu_cxx12_Lock_policyE2EE@Base 1.1.0
 _ZTSN2Fm10DirListJobE@Base 0.16.0
 _ZTSN2Fm10FileDialog16FileDialogFilterE@Base 0.16.0
 _ZTSN2Fm10FileDialogE@Base 0.16.0
 _ZTSN2Fm10FolderMenuE@Base 0.16.0
 _ZTSN2Fm10FolderViewE@Base 0.16.0
 _ZTSN2Fm10FontButtonE@Base 0.16.0
 _ZTSN2Fm10PlacesViewE@Base 0.16.0
 _ZTSN2Fm10UntrashJobE@Base 0.16.0
 _ZTSN2Fm11AppMenuViewE@Base 0.16.0
 _ZTSN2Fm11ColorButtonE@Base 0.16.0
 _ZTSN2Fm11DirTreeViewE@Base 0.16.0
 _ZTSN2Fm11FileInfoJobE@Base 0.16.0
 _ZTSN2Fm11FileLinkJobE@Base 0.16.0
 _ZTSN2Fm11FileMonitorE@Base 0.16.0
 _ZTSN2Fm11FolderModelE@Base 0.16.0
 _ZTSN2Fm11PlacesModel10ItemActionE@Base 0.16.0
 _ZTSN2Fm11PlacesModelE@Base 0.16.0
 _ZTSN2Fm12DirTreeModelE@Base 0.16.0
 _ZTSN2Fm12FileLauncherE@Base 0.16.0
 _ZTSN2Fm12RenameDialogE@Base 0.16.0
 _ZTSN2Fm12ThumbnailJobE@Base 0.16.0
 _ZTSN2Fm12TotalSizeJobE@Base 0.16.0
 _ZTSN2Fm13BrowseHistoryE@Base 0.16.0
 _ZTSN2Fm13CreateNewMenuE@Base 0.16.0
 _ZTSN2Fm13FileOperationE@Base 0.16.0
 _ZTSN2Fm13UserInfoCacheE@Base 0.16.0
 _ZTSN2Fm13VolumeManager20GetGVolumeMonitorJobE@Base 0.16.0
 _ZTSN2Fm13VolumeManagerE@Base 0.16.0
 _ZTSN2Fm14BookmarkActionE@Base 0.16.0
 _ZTSN2Fm14MountOperationE@Base 0.16.0
 _ZTSN2Fm15FilePropsDialogE@Base 0.16.0
 _ZTSN2Fm15FileTransferJobE@Base 0.16.0
 _ZTSN2Fm15FolderModelItemE@Base 0.16.0
 _ZTSN2Fm15PlacesModelItemE@Base 0.16.0
 _ZTSN2Fm16AppChooserDialogE@Base 0.16.0
 _ZTSN2Fm16FileDialogHelperE@Base 0.16.0
 _ZTSN2Fm16FileOperationJobE@Base 0.16.0
 _ZTSN2Fm16FileSearchDialogE@Base 0.16.0
 _ZTSN2Fm16PlacesProxyModelE@Base 0.16.0
 _ZTSN2Fm16ProxyFolderModelE@Base 0.16.0
 _ZTSN2Fm17BasicFileLauncherE@Base 0.16.0
 _ZTSN2Fm17CachedFolderModelE@Base 0.16.0
 _ZTSN2Fm17FileChangeAttrJobE@Base 0.16.0
 _ZTSN2Fm17FileSystemInfoJobE@Base 0.16.0
 _ZTSN2Fm18AppChooserComboBoxE@Base 0.16.0
 _ZTSN2Fm18FolderItemDelegateE@Base 0.16.0
 _ZTSN2Fm19EditBookmarksDialogE@Base 0.16.0
 _ZTSN2Fm19FileOperationDialogE@Base 0.16.0
 _ZTSN2Fm20PlacesModelMountItemE@Base 0.16.0
 _ZTSN2Fm21PlacesModelVolumeItemE@Base 0.16.0
 _ZTSN2Fm22ProxyFolderModelFilterE@Base 0.16.0
 _ZTSN2Fm23PlacesModelBookmarkItemE@Base 0.16.0
 _ZTSN2Fm3JobE@Base 0.16.0
 _ZTSN2Fm6FolderE@Base 0.16.0
 _ZTSN2Fm7PathBarE@Base 0.16.0
 _ZTSN2Fm8FileInfoE@Base 0.16.0
 _ZTSN2Fm8FileMenuE@Base 0.16.0
 _ZTSN2Fm8PathEditE@Base 0.16.0
 _ZTSN2Fm8SidePaneE@Base 0.16.0
 _ZTSN2Fm8TrashJobE@Base 0.16.0
 _ZTSN2Fm9BookmarksE@Base 0.16.0
 _ZTSN2Fm9DeleteJobE@Base 0.16.0
 _ZTSN2Fm9TemplatesE@Base 0.16.0
 (arch=armel riscv64)_ZTSN9__gnu_cxx7__mutexE@Base 1.1.0
 (arch=armel riscv64)_ZTSSt11_Mutex_baseILN9__gnu_cxx12_Lock_policyE1EE@Base 1.1.0
 (arch=!armel !riscv64)_ZTSSt11_Mutex_baseILN9__gnu_cxx12_Lock_policyE2EE@Base 0.16.0
 (arch=armel riscv64)_ZTSSt16_Sp_counted_baseILN9__gnu_cxx12_Lock_policyE1EE@Base 1.1.0
 (arch=!armel !riscv64)_ZTSSt16_Sp_counted_baseILN9__gnu_cxx12_Lock_policyE2EE@Base 0.16.0
 _ZTSSt19_Sp_make_shared_tag@Base 0.16.0
 (arch=armel riscv64)_ZTSSt23_Sp_counted_ptr_inplaceIKN2Fm12BookmarkItemESaIvELN9__gnu_cxx12_Lock_policyE1EE@Base 1.1.0
 (arch=!armel !riscv64)_ZTSSt23_Sp_counted_ptr_inplaceIKN2Fm12BookmarkItemESaIvELN9__gnu_cxx12_Lock_policyE2EE@Base 1.1.0
 (arch=armel riscv64)_ZTSSt23_Sp_counted_ptr_inplaceIN2Fm11PlacesModelESaIvELN9__gnu_cxx12_Lock_policyE1EE@Base 1.1.0
 (arch=!armel !riscv64)_ZTSSt23_Sp_counted_ptr_inplaceIN2Fm11PlacesModelESaIvELN9__gnu_cxx12_Lock_policyE2EE@Base 1.1.0
 (arch=armel riscv64)_ZTSSt23_Sp_counted_ptr_inplaceIN2Fm11ThumbnailerESaIvELN9__gnu_cxx12_Lock_policyE1EE@Base 1.1.0
 (arch=!armel !riscv64)_ZTSSt23_Sp_counted_ptr_inplaceIN2Fm11ThumbnailerESaIvELN9__gnu_cxx12_Lock_policyE2EE@Base 1.1.0
 (arch=armel riscv64)_ZTSSt23_Sp_counted_ptr_inplaceIN2Fm12BookmarkItemESaIvELN9__gnu_cxx12_Lock_policyE1EE@Base 1.1.0
 (arch=!armel !riscv64)_ZTSSt23_Sp_counted_ptr_inplaceIN2Fm12BookmarkItemESaIvELN9__gnu_cxx12_Lock_policyE2EE@Base 1.1.0
 (arch=armel riscv64)_ZTSSt23_Sp_counted_ptr_inplaceIN2Fm12TemplateItemESaIvELN9__gnu_cxx12_Lock_policyE1EE@Base 1.1.0
 (arch=!armel !riscv64)_ZTSSt23_Sp_counted_ptr_inplaceIN2Fm12TemplateItemESaIvELN9__gnu_cxx12_Lock_policyE2EE@Base 1.1.0
 (arch=armel riscv64)_ZTSSt23_Sp_counted_ptr_inplaceIN2Fm13VolumeManagerESaIvELN9__gnu_cxx12_Lock_policyE1EE@Base 1.1.0
 (arch=!armel !riscv64)_ZTSSt23_Sp_counted_ptr_inplaceIN2Fm13VolumeManagerESaIvELN9__gnu_cxx12_Lock_policyE2EE@Base 1.1.0
 (arch=armel riscv64)_ZTSSt23_Sp_counted_ptr_inplaceIN2Fm16PlacesProxyModelESaIvELN9__gnu_cxx12_Lock_policyE1EE@Base 1.1.0
 (arch=!armel !riscv64)_ZTSSt23_Sp_counted_ptr_inplaceIN2Fm16PlacesProxyModelESaIvELN9__gnu_cxx12_Lock_policyE2EE@Base 1.1.0
 (arch=armel riscv64)_ZTSSt23_Sp_counted_ptr_inplaceIN2Fm6FolderESaIvELN9__gnu_cxx12_Lock_policyE1EE@Base 1.1.0
 (arch=!armel !riscv64)_ZTSSt23_Sp_counted_ptr_inplaceIN2Fm6FolderESaIvELN9__gnu_cxx12_Lock_policyE2EE@Base 1.1.0
 (arch=armel riscv64)_ZTSSt23_Sp_counted_ptr_inplaceIN2Fm8FileInfoESaIvELN9__gnu_cxx12_Lock_policyE1EE@Base 1.1.0
 (arch=!armel !riscv64)_ZTSSt23_Sp_counted_ptr_inplaceIN2Fm8FileInfoESaIvELN9__gnu_cxx12_Lock_policyE2EE@Base 1.1.0
 (arch=armel riscv64)_ZTSSt23_Sp_counted_ptr_inplaceIN2Fm8IconInfoESaIvELN9__gnu_cxx12_Lock_policyE1EE@Base 1.1.0
 (arch=!armel !riscv64)_ZTSSt23_Sp_counted_ptr_inplaceIN2Fm8IconInfoESaIvELN9__gnu_cxx12_Lock_policyE2EE@Base 1.1.0
 (arch=armel riscv64)_ZTSSt23_Sp_counted_ptr_inplaceIN2Fm8MimeTypeESaIvELN9__gnu_cxx12_Lock_policyE1EE@Base 1.1.0
 (arch=!armel !riscv64)_ZTSSt23_Sp_counted_ptr_inplaceIN2Fm8MimeTypeESaIvELN9__gnu_cxx12_Lock_policyE2EE@Base 1.1.0
 (arch=armel riscv64)_ZTSSt23_Sp_counted_ptr_inplaceIN2Fm8UserInfoESaIvELN9__gnu_cxx12_Lock_policyE1EE@Base 1.1.0
 (arch=!armel !riscv64)_ZTSSt23_Sp_counted_ptr_inplaceIN2Fm8UserInfoESaIvELN9__gnu_cxx12_Lock_policyE2EE@Base 1.1.0
 (arch=armel riscv64)_ZTSSt23_Sp_counted_ptr_inplaceIN2Fm9BookmarksESaIvELN9__gnu_cxx12_Lock_policyE1EE@Base 1.1.0
 (arch=!armel !riscv64)_ZTSSt23_Sp_counted_ptr_inplaceIN2Fm9BookmarksESaIvELN9__gnu_cxx12_Lock_policyE2EE@Base 1.1.0
 (arch=armel riscv64)_ZTSSt23_Sp_counted_ptr_inplaceIN2Fm9GroupInfoESaIvELN9__gnu_cxx12_Lock_policyE1EE@Base 1.1.0
 (arch=!armel !riscv64)_ZTSSt23_Sp_counted_ptr_inplaceIN2Fm9GroupInfoESaIvELN9__gnu_cxx12_Lock_policyE2EE@Base 1.1.0
 (arch=armel riscv64)_ZTSSt23_Sp_counted_ptr_inplaceIN2Fm9TemplatesESaIvELN9__gnu_cxx12_Lock_policyE1EE@Base 1.1.0
 (arch=!armel !riscv64)_ZTSSt23_Sp_counted_ptr_inplaceIN2Fm9TemplatesESaIvELN9__gnu_cxx12_Lock_policyE2EE@Base 1.1.0
 _ZTVN2Fm10DirListJobE@Base 0.16.0
 _ZTVN2Fm10FileDialog16FileDialogFilterE@Base 0.16.0
 _ZTVN2Fm10FileDialogE@Base 0.16.0
 _ZTVN2Fm10FolderMenuE@Base 0.16.0
 _ZTVN2Fm10FolderViewE@Base 0.16.0
 _ZTVN2Fm10FontButtonE@Base 0.16.0
 _ZTVN2Fm10PlacesViewE@Base 0.16.0
 _ZTVN2Fm10UntrashJobE@Base 0.16.0
 _ZTVN2Fm11AppMenuViewE@Base 0.16.0
 _ZTVN2Fm11ColorButtonE@Base 0.16.0
 _ZTVN2Fm11DirTreeViewE@Base 0.16.0
 _ZTVN2Fm11FileInfoJobE@Base 0.16.0
 _ZTVN2Fm11FileLinkJobE@Base 0.16.0
 _ZTVN2Fm11FileMonitorE@Base 0.16.0
 _ZTVN2Fm11FolderModelE@Base 0.16.0
 _ZTVN2Fm11PlacesModel10ItemActionE@Base 0.16.0
 _ZTVN2Fm11PlacesModelE@Base 0.16.0
 _ZTVN2Fm12DirTreeModelE@Base 0.16.0
 _ZTVN2Fm12FileLauncherE@Base 0.16.0
 _ZTVN2Fm12RenameDialogE@Base 0.16.0
 _ZTVN2Fm12ThumbnailJobE@Base 0.16.0
 _ZTVN2Fm12TotalSizeJobE@Base 0.16.0
 _ZTVN2Fm13BrowseHistoryE@Base 0.16.0
 _ZTVN2Fm13CreateNewMenuE@Base 0.16.0
 _ZTVN2Fm13FileOperationE@Base 0.16.0
 _ZTVN2Fm13UserInfoCacheE@Base 0.16.0
 _ZTVN2Fm13VolumeManager20GetGVolumeMonitorJobE@Base 0.16.0
 _ZTVN2Fm13VolumeManagerE@Base 0.16.0
 _ZTVN2Fm14BookmarkActionE@Base 0.16.0
 _ZTVN2Fm14MountOperationE@Base 0.16.0
 _ZTVN2Fm15FilePropsDialogE@Base 0.16.0
 _ZTVN2Fm15FileTransferJobE@Base 0.16.0
 _ZTVN2Fm15FolderModelItemE@Base 0.16.0
 _ZTVN2Fm15PlacesModelItemE@Base 0.16.0
 _ZTVN2Fm16AppChooserDialogE@Base 0.16.0
 _ZTVN2Fm16FileDialogHelperE@Base 0.16.0
 _ZTVN2Fm16FileOperationJobE@Base 0.16.0
 _ZTVN2Fm16FileSearchDialogE@Base 0.16.0
 _ZTVN2Fm16PlacesProxyModelE@Base 0.16.0
 _ZTVN2Fm16ProxyFolderModelE@Base 0.16.0
 _ZTVN2Fm17BasicFileLauncherE@Base 0.16.0
 _ZTVN2Fm17CachedFolderModelE@Base 0.16.0
 _ZTVN2Fm17FileChangeAttrJobE@Base 0.16.0
 _ZTVN2Fm17FileSystemInfoJobE@Base 0.16.0
 _ZTVN2Fm18AppChooserComboBoxE@Base 0.16.0
 _ZTVN2Fm18FolderItemDelegateE@Base 0.16.0
 _ZTVN2Fm19EditBookmarksDialogE@Base 0.16.0
 _ZTVN2Fm19FileOperationDialogE@Base 0.16.0
 _ZTVN2Fm20PlacesModelMountItemE@Base 0.16.0
 _ZTVN2Fm21PlacesModelVolumeItemE@Base 0.16.0
 _ZTVN2Fm23PlacesModelBookmarkItemE@Base 0.16.0
 _ZTVN2Fm3JobE@Base 0.16.0
 _ZTVN2Fm6FolderE@Base 0.16.0
 _ZTVN2Fm7PathBarE@Base 0.16.0
 _ZTVN2Fm8FileInfoE@Base 0.16.0
 _ZTVN2Fm8FileMenuE@Base 0.16.0
 _ZTVN2Fm8PathEditE@Base 0.16.0
 _ZTVN2Fm8SidePaneE@Base 0.16.0
 _ZTVN2Fm8TrashJobE@Base 0.16.0
 _ZTVN2Fm9BookmarksE@Base 0.16.0
 _ZTVN2Fm9DeleteJobE@Base 0.16.0
 _ZTVN2Fm9TemplatesE@Base 0.16.0
 (arch=armel riscv64)_ZTVSt23_Sp_counted_ptr_inplaceIKN2Fm12BookmarkItemESaIvELN9__gnu_cxx12_Lock_policyE1EE@Base 1.1.0
 (arch=!armel !riscv64)_ZTVSt23_Sp_counted_ptr_inplaceIKN2Fm12BookmarkItemESaIvELN9__gnu_cxx12_Lock_policyE2EE@Base 1.1.0
 (arch=armel riscv64)_ZTVSt23_Sp_counted_ptr_inplaceIN2Fm11PlacesModelESaIvELN9__gnu_cxx12_Lock_policyE1EE@Base 1.1.0
 (arch=!armel !riscv64)_ZTVSt23_Sp_counted_ptr_inplaceIN2Fm11PlacesModelESaIvELN9__gnu_cxx12_Lock_policyE2EE@Base 1.1.0
 (arch=armel riscv64)_ZTVSt23_Sp_counted_ptr_inplaceIN2Fm11ThumbnailerESaIvELN9__gnu_cxx12_Lock_policyE1EE@Base 1.1.0
 (arch=!armel !riscv64)_ZTVSt23_Sp_counted_ptr_inplaceIN2Fm11ThumbnailerESaIvELN9__gnu_cxx12_Lock_policyE2EE@Base 1.1.0
 (arch=armel riscv64)_ZTVSt23_Sp_counted_ptr_inplaceIN2Fm12BookmarkItemESaIvELN9__gnu_cxx12_Lock_policyE1EE@Base 1.1.0
 (arch=!armel !riscv64)_ZTVSt23_Sp_counted_ptr_inplaceIN2Fm12BookmarkItemESaIvELN9__gnu_cxx12_Lock_policyE2EE@Base 1.1.0
 (arch=armel riscv64)_ZTVSt23_Sp_counted_ptr_inplaceIN2Fm12TemplateItemESaIvELN9__gnu_cxx12_Lock_policyE1EE@Base 1.1.0
 (arch=!armel !riscv64)_ZTVSt23_Sp_counted_ptr_inplaceIN2Fm12TemplateItemESaIvELN9__gnu_cxx12_Lock_policyE2EE@Base 1.1.0
 (arch=armel riscv64)_ZTVSt23_Sp_counted_ptr_inplaceIN2Fm13VolumeManagerESaIvELN9__gnu_cxx12_Lock_policyE1EE@Base 1.1.0
 (arch=!armel !riscv64)_ZTVSt23_Sp_counted_ptr_inplaceIN2Fm13VolumeManagerESaIvELN9__gnu_cxx12_Lock_policyE2EE@Base 1.1.0
 (arch=armel riscv64)_ZTVSt23_Sp_counted_ptr_inplaceIN2Fm16PlacesProxyModelESaIvELN9__gnu_cxx12_Lock_policyE1EE@Base 1.1.0
 (arch=!armel !riscv64)_ZTVSt23_Sp_counted_ptr_inplaceIN2Fm16PlacesProxyModelESaIvELN9__gnu_cxx12_Lock_policyE2EE@Base 1.1.0
 (arch=armel riscv64)_ZTVSt23_Sp_counted_ptr_inplaceIN2Fm6FolderESaIvELN9__gnu_cxx12_Lock_policyE1EE@Base 1.1.0
 (arch=!armel !riscv64)_ZTVSt23_Sp_counted_ptr_inplaceIN2Fm6FolderESaIvELN9__gnu_cxx12_Lock_policyE2EE@Base 1.1.0
 (arch=armel riscv64)_ZTVSt23_Sp_counted_ptr_inplaceIN2Fm8FileInfoESaIvELN9__gnu_cxx12_Lock_policyE1EE@Base 1.1.0
 (arch=!armel !riscv64)_ZTVSt23_Sp_counted_ptr_inplaceIN2Fm8FileInfoESaIvELN9__gnu_cxx12_Lock_policyE2EE@Base 1.1.0
 (arch=armel riscv64)_ZTVSt23_Sp_counted_ptr_inplaceIN2Fm8IconInfoESaIvELN9__gnu_cxx12_Lock_policyE1EE@Base 1.1.0
 (arch=!armel !riscv64)_ZTVSt23_Sp_counted_ptr_inplaceIN2Fm8IconInfoESaIvELN9__gnu_cxx12_Lock_policyE2EE@Base 1.1.0
 (arch=armel riscv64)_ZTVSt23_Sp_counted_ptr_inplaceIN2Fm8MimeTypeESaIvELN9__gnu_cxx12_Lock_policyE1EE@Base 1.1.0
 (arch=!armel !riscv64)_ZTVSt23_Sp_counted_ptr_inplaceIN2Fm8MimeTypeESaIvELN9__gnu_cxx12_Lock_policyE2EE@Base 1.1.0
 (arch=armel riscv64)_ZTVSt23_Sp_counted_ptr_inplaceIN2Fm8UserInfoESaIvELN9__gnu_cxx12_Lock_policyE1EE@Base 1.1.0
 (arch=!armel !riscv64)_ZTVSt23_Sp_counted_ptr_inplaceIN2Fm8UserInfoESaIvELN9__gnu_cxx12_Lock_policyE2EE@Base 1.1.0
 (arch=armel riscv64)_ZTVSt23_Sp_counted_ptr_inplaceIN2Fm9BookmarksESaIvELN9__gnu_cxx12_Lock_policyE1EE@Base 1.1.0
 (arch=!armel !riscv64)_ZTVSt23_Sp_counted_ptr_inplaceIN2Fm9BookmarksESaIvELN9__gnu_cxx12_Lock_policyE2EE@Base 1.1.0
 (arch=armel riscv64)_ZTVSt23_Sp_counted_ptr_inplaceIN2Fm9GroupInfoESaIvELN9__gnu_cxx12_Lock_policyE1EE@Base 1.1.0
 (arch=!armel !riscv64)_ZTVSt23_Sp_counted_ptr_inplaceIN2Fm9GroupInfoESaIvELN9__gnu_cxx12_Lock_policyE2EE@Base 1.1.0
 (arch=armel riscv64)_ZTVSt23_Sp_counted_ptr_inplaceIN2Fm9TemplatesESaIvELN9__gnu_cxx12_Lock_policyE1EE@Base 1.1.0
 (arch=!armel !riscv64)_ZTVSt23_Sp_counted_ptr_inplaceIN2Fm9TemplatesESaIvELN9__gnu_cxx12_Lock_policyE2EE@Base 1.1.0
 _ZZNSt19_Sp_make_shared_tag5_S_tiEvE5__tag@Base 0.16.0
 (optional=templinst|arch=armel armhf hppa i386 mipsel powerpc sh4)_ZZNSt8__detail18__to_chars_10_implIjEEvPcjT_E8__digits@Base 1.1.0
 (optional=templinst|arch=!armel !armhf !hppa !i386 !mipsel !powerpc !sh4)_ZZNSt8__detail18__to_chars_10_implImEEvPcjT_E8__digits@Base 1.1.0
 createFileDialogHelper@Base 0.16.0
 fm_config@Base 0.16.0
 (c++)"non-virtual thunk to Fm::AppChooserComboBox::~AppChooserComboBox()@Base" 0.16.0
 (c++)"non-virtual thunk to Fm::AppChooserDialog::~AppChooserDialog()@Base" 0.16.0
 (c++)"non-virtual thunk to Fm::AppMenuView::~AppMenuView()@Base" 0.16.0
 (c++)"non-virtual thunk to Fm::ColorButton::~ColorButton()@Base" 0.16.0
 (c++)"non-virtual thunk to Fm::CreateNewMenu::~CreateNewMenu()@Base" 0.16.0
 (c++)"non-virtual thunk to Fm::DeleteJob::~DeleteJob()@Base" 0.16.0
 (c++)"non-virtual thunk to Fm::DirTreeView::~DirTreeView()@Base" 0.16.0
 (c++)"non-virtual thunk to Fm::EditBookmarksDialog::~EditBookmarksDialog()@Base" 0.16.0
 (c++)"non-virtual thunk to Fm::FileDialog::~FileDialog()@Base" 0.16.0
 (c++)"non-virtual thunk to Fm::FileMenu::~FileMenu()@Base" 0.16.0
 (c++)"non-virtual thunk to Fm::FileOperationDialog::~FileOperationDialog()@Base" 0.16.0
 (c++)"non-virtual thunk to Fm::FilePropsDialog::~FilePropsDialog()@Base" 0.16.0
 (c++)"non-virtual thunk to Fm::FileSearchDialog::~FileSearchDialog()@Base" 0.16.0
 (c++)"non-virtual thunk to Fm::FolderMenu::~FolderMenu()@Base" 0.16.0
 (c++)"non-virtual thunk to Fm::FolderView::~FolderView()@Base" 0.16.0
 (c++)"non-virtual thunk to Fm::FontButton::~FontButton()@Base" 0.16.0
 (c++)"non-virtual thunk to Fm::Job::run()@Base" 0.16.0
 (c++)"non-virtual thunk to Fm::Job::~Job()@Base" 0.16.0
 (c++)"non-virtual thunk to Fm::PathEdit::~PathEdit()@Base" 0.16.0
 (c++)"non-virtual thunk to Fm::PlacesView::~PlacesView()@Base" 0.16.0
 (c++)"non-virtual thunk to Fm::RenameDialog::~RenameDialog()@Base" 0.16.0
 (c++)"non-virtual thunk to Fm::SidePane::~SidePane()@Base" 0.16.0
 (c++)"non-virtual thunk to Fm::ThumbnailJob::~ThumbnailJob()@Base" 0.16.0
